

HI-TECH Software PIC LITE Macro Assembler V9.80 build 6738 
                                                                                               Fri Nov 24 19:44:49 2017

HI-TECH Software Omniscient Code Generator (Lite mode) build 6738
     1  0000                     opt subtitle "HI-TECH Software Omniscient Code Generator (Lite mode) build 6738"
     2                           
     3                           opt pagewidth 120
     4                           
     5                           	opt lm
     6                           
     7                           	processor	16F887
     8                           clrc	macro
     9                           	bcf	3,0
    10  0000                     	endm
    11                           clrz	macro
    12                           	bcf	3,2
    13  0000                     	endm
    14                           setc	macro
    15                           	bsf	3,0
    16  0000                     	endm
    17                           setz	macro
    18                           	bsf	3,2
    19  0000                     	endm
    20                           skipc	macro
    21                           	btfss	3,0
    22  0000                     	endm
    23                           skipz	macro
    24                           	btfss	3,2
    25  0000                     	endm
    26                           skipnc	macro
    27                           	btfsc	3,0
    28  0000                     	endm
    29                           skipnz	macro
    30                           	btfsc	3,2
    31  0000                     	endm
    32  0000                     indf	equ	0
    33  0000                     indf0	equ	0
    34  0002                     pc	equ	2
    35  0002                     pcl	equ	2
    36  0003                     status	equ	3
    37  0004                     fsr	equ	4
    38  0004                     fsr0	equ	4
    39  0001                     c	equ	1
    40  0000                     z	equ	0
    41  000A                     pclath	equ	10
    42                           # 6 "C:\Users\Administrator\Desktop\CODE1-ACE5\CODE1-FRAME WORK\CODE MPLAP\main.c"
    43                           	psect config,class=CONFIG,delta=2 ;#
    44                           # 6 "C:\Users\Administrator\Desktop\CODE1-ACE5\CODE1-FRAME WORK\CODE MPLAP\main.c"
    45  2007  20E2               	dw 0x3FFA & 0x3FF7 & 0x3FEF & 0x3FFF & 0x3FFF & 0x3FFF & 0x3CFF & 0x3BFF & 0x37FF & 0x2
                                 FFF ;#
    46                           	FNCALL	_main,_lcd_init
    47                           	FNCALL	_main,_delay_ms
    48                           	FNCALL	_main,_BH1750_write
    49                           	FNCALL	_main,_BH1750_read
    50                           	FNCALL	_main,_xu_ly_lux
    51                           	FNCALL	_main,_send_lux
    52                           	FNCALL	_xu_ly_lux,_lcd_gotoxy
    53                           	FNCALL	_xu_ly_lux,_lcd_puts
    54                           	FNCALL	_xu_ly_lux,_lcd_putc
    55                           	FNCALL	_xu_ly_lux,_delay_ms
    56                           	FNCALL	_xu_ly_lux,___ftdiv
    57                           	FNCALL	_xu_ly_lux,___fttol
    58                           	FNCALL	_xu_ly_lux,___awdiv
    59                           	FNCALL	_xu_ly_lux,___awmod
    60                           	FNCALL	_xu_ly_lux,___awtoft
    61                           	FNCALL	_xu_ly_lux,___ftneg
    62                           	FNCALL	_xu_ly_lux,___ftadd
    63                           	FNCALL	_xu_ly_lux,___ftmul
    64                           	FNCALL	_lcd_puts,_lcd_putc
    65                           	FNCALL	_lcd_putc,_lcd_put_byte
    66                           	FNCALL	_lcd_putc,_lcd_busy
    67                           	FNCALL	_lcd_putc,_lcd_gotoxy
    68                           	FNCALL	_lcd_putc,_isprint
    69                           	FNCALL	_lcd_init,_lcd_put_byte
    70                           	FNCALL	_lcd_init,_lcd_busy
    71                           	FNCALL	_send_lux,___ftmul
    72                           	FNCALL	_send_lux,___fttol
    73                           	FNCALL	_send_lux,___awdiv
    74                           	FNCALL	_send_lux,___awmod
    75                           	FNCALL	_send_lux,_uart_tx
    76                           	FNCALL	_send_lux,_delay_ms
    77                           	FNCALL	_lcd_gotoxy,_lcd_put_byte
    78                           	FNCALL	_lcd_gotoxy,_lcd_busy
    79                           	FNCALL	_BH1750_read,_I2C_start
    80                           	FNCALL	_BH1750_read,_I2C_write
    81                           	FNCALL	_BH1750_read,_I2C_read
    82                           	FNCALL	_BH1750_read,_I2C_stop
    83                           	FNCALL	_BH1750_read,___awtoft
    84                           	FNCALL	_BH1750_read,___ftdiv
    85                           	FNCALL	_BH1750_write,_I2C_start
    86                           	FNCALL	_BH1750_write,_I2C_write
    87                           	FNCALL	_BH1750_write,_I2C_stop
    88                           	FNCALL	___awtoft,___ftpack
    89                           	FNCALL	___ftmul,___ftpack
    90                           	FNCALL	___ftdiv,___ftpack
    91                           	FNCALL	___ftadd,___ftpack
    92                           	FNCALL	_I2C_write,_i2c_dly
    93                           	FNCALL	_I2C_read,_i2c_dly
    94                           	FNCALL	_I2C_stop,_i2c_dly
    95                           	FNCALL	_I2C_start,_i2c_dly
    96                           	FNROOT	_main
    97                           	FNCALL	intlevel1,_uart_isr
    98                           	global	intlevel1
    99                           	FNROOT	intlevel1
   100                           	global	_flux1
   101                           	global	_value2
   102                           	global	_biennt2
   103                           	global	_chuc
   104                           	global	_chuc1
   105                           	global	_chuc2
   106                           	global	_chuclux
   107                           	global	_dvi
   108                           	global	_dvi1
   109                           	global	_dvilux
   110                           	global	_nghin
   111                           	global	_nghin1
   112                           	global	_nghinlux
   113                           	global	_nt1
   114                           	global	_nt2
   115                           	global	_tram
   116                           	global	_tram1
   117                           	global	_tramlux
   118                           	global	_biennt1
   119                           	global	_check1
   120                           	global	_dosang1
   121                           	global	_save
   122                           	global	I2C_write@b
   123                           	global	_check
   124                           	global	_dosang
   125                           	global	_err
   126                           	global	_kd1
   127                           	global	_ki1
   128                           	global	_kp1
   129                           	global	_nhietdo
   130                           	global	_value1
   131                           	global	_flux2
   132                           	global	_fnt1
   133                           	global	_fnt2
   134                           	global	_k
   135                           	global	_kp5
   136                           	global	_kq
   137                           	global	_kq2
   138                           	global	_kqkd
   139                           	global	_kqki
   140                           	global	_kqkp
   141                           	global	_lux_set
   142                           	global	_m
   143                           	global	_n
   144                           	global	_nhietdo1
   145                           	global	_output
   146                           	global	_pre_err
   147                           	global	_temp
   148                           	global	_value
   149                           	global	_value3
   150                           	global	_c
   151                           	global	_dvi2
   152                           	global	_CCP1CON
   153                           psect	text985,local,class=CODE,delta=2
   154                           global __ptext985
   155  0000                     __ptext985:
   156  0017                     _CCP1CON	set	23
   157                           	global	_PORTC
   158  0007                     _PORTC	set	7
   159                           	global	_RCREG
   160  001A                     _RCREG	set	26
   161                           	global	_RCSTA
   162  0018                     _RCSTA	set	24
   163                           	global	_T2CON
   164  0012                     _T2CON	set	18
   165                           	global	_TMR0
   166  0001                     _TMR0	set	1
   167                           	global	_TXREG
   168  0019                     _TXREG	set	25
   169                           	global	_ADCS0
   170  00FE                     _ADCS0	set	254
   171                           	global	_ADCS1
   172  00FF                     _ADCS1	set	255
   173                           	global	_ADON
   174  00F8                     _ADON	set	248
   175                           	global	_CHS0
   176  00FA                     _CHS0	set	250
   177                           	global	_CHS1
   178  00FB                     _CHS1	set	251
   179                           	global	_CHS2
   180  00FC                     _CHS2	set	252
   181                           	global	_CHS3
   182  00FD                     _CHS3	set	253
   183                           	global	_GIE
   184  005F                     _GIE	set	95
   185                           	global	_PEIE
   186  005E                     _PEIE	set	94
   187                           	global	_RC3
   188  003B                     _RC3	set	59
   189                           	global	_RC4
   190  003C                     _RC4	set	60
   191                           	global	_RCIF
   192  0065                     _RCIF	set	101
   193                           	global	_RD1
   194  0041                     _RD1	set	65
   195                           	global	_RD2
   196  0042                     _RD2	set	66
   197                           	global	_RD3
   198  0043                     _RD3	set	67
   199                           	global	_RD4
   200  0044                     _RD4	set	68
   201                           	global	_RD5
   202  0045                     _RD5	set	69
   203                           	global	_RD6
   204  0046                     _RD6	set	70
   205                           	global	_RD7
   206  0047                     _RD7	set	71
   207                           	global	_T0IE
   208  005D                     _T0IE	set	93
   209                           	global	_T0IF
   210  005A                     _T0IF	set	90
   211                           	global	_TMR2ON
   212  0092                     _TMR2ON	set	146
   213                           	global	_TXIF
   214  0064                     _TXIF	set	100
   215                           	global	_PR2
   216  0092                     _PR2	set	146
   217                           	global	_SPBRG
   218  0099                     _SPBRG	set	153
   219                           	global	_SPBRGH
   220  009A                     _SPBRGH	set	154
   221                           	global	_TXSTA
   222  0098                     _TXSTA	set	152
   223                           	global	_ADFM
   224  04FF                     _ADFM	set	1279
   225                           	global	_PS0
   226  0408                     _PS0	set	1032
   227                           	global	_PS1
   228  0409                     _PS1	set	1033
   229                           	global	_PS2
   230  040A                     _PS2	set	1034
   231                           	global	_PSA
   232  040B                     _PSA	set	1035
   233                           	global	_RCIE
   234  0465                     _RCIE	set	1125
   235                           	global	_SYNC
   236  04C4                     _SYNC	set	1220
   237                           	global	_T0CS
   238  040D                     _T0CS	set	1037
   239                           	global	_T0SE
   240  040C                     _T0SE	set	1036
   241                           	global	_TRISC1
   242  0439                     _TRISC1	set	1081
   243                           	global	_TRISC2
   244  043A                     _TRISC2	set	1082
   245                           	global	_TRISC3
   246  043B                     _TRISC3	set	1083
   247                           	global	_TRISC4
   248  043C                     _TRISC4	set	1084
   249                           	global	_TRISD1
   250  0441                     _TRISD1	set	1089
   251                           	global	_TRISD2
   252  0442                     _TRISD2	set	1090
   253                           	global	_TRISD3
   254  0443                     _TRISD3	set	1091
   255                           	global	_TRISD4
   256  0444                     _TRISD4	set	1092
   257                           	global	_TRISD5
   258  0445                     _TRISD5	set	1093
   259                           	global	_TRISD6
   260  0446                     _TRISD6	set	1094
   261                           	global	_TRISD7
   262  0447                     _TRISD7	set	1095
   263                           	global	_VCFG0
   264  04FC                     _VCFG0	set	1276
   265                           	global	_VCFG1
   266  04FD                     _VCFG1	set	1277
   267                           	global	_ANSEL
   268  0188                     _ANSEL	set	392
   269                           	global	_ANSELH
   270  0189                     _ANSELH	set	393
   271                           	global	_ANS2
   272  0C42                     _ANS2	set	3138
   273                           	global	_BRG16
   274  0C3B                     _BRG16	set	3131
   275                           psect	strings,class=STRING,delta=2
   276                           global __pstrings
   277  0015                     __pstrings:
   278                           ;	global	stringdir,stringtab,__stringbase
   279  0015                     stringtab:
   280                           ;	String table - string pointers are 1 byte each
   281  0015                     stringcode:stringdir:
      + 0015                     stringdir:	
   282  0015  3000               movlw high(stringdir)
   283  0016  008A               movwf pclath
   284  0017  0804               movf fsr,w
   285  0018  0A84               incf fsr
   286  0019  0782               	addwf pc
   287  001A                     __stringbase:
   288  001A  3400               	retlw	0
   289                           psect	strings
   290                           	
   291  001B                     STR_1:	
   292  001B  346C               	retlw	108	;'l'
   293  001C  3475               	retlw	117	;'u'
   294  001D  3478               	retlw	120	;'x'
   295  001E  343A               	retlw	58	;':'
   296  001F  3420               	retlw	32	;' '
   297  0020  3400               	retlw	0
   298                           psect	strings
   299                           	file	"led1.as"
   300                           	line	#
   301                           psect cinit,class=CODE,delta=2
   302                           global start_initialization
   303  0A03                     start_initialization:
   304                           
   305                           psect	bitbssCOMMON,class=COMMON,bit,space=1
   306                           global __pbitbssCOMMON
   307  03C8                     __pbitbssCOMMON:
   308  03C8                     I2C_write@b:
   309  03C8                            ds      1
   310                           
   311                           psect	bssCOMMON,class=COMMON,space=1
   312                           global __pbssCOMMON
   313  0075                     __pbssCOMMON:
   314  0075                     _biennt1:
   315  0075                            ds      1
   316                           
   317  0076                     _check1:
   318  0076                            ds      1
   319                           
   320  0077                     _dosang1:
   321  0077                            ds      1
   322                           
   323  0078                     _save:
   324  0078                            ds      1
   325                           
   326                           psect	bssBANK0,class=BANK0,space=1
   327                           global __pbssBANK0
   328  005C                     __pbssBANK0:
   329  005C                     _flux1:
   330  005C                            ds      2
   331                           
   332  005E                     _value2:
   333  005E                            ds      2
   334                           
   335  0060                     _biennt2:
   336  0060                            ds      1
   337                           
   338  0061                     _chuc:
   339  0061                            ds      1
   340                           
   341  0062                     _chuc1:
   342  0062                            ds      1
   343                           
   344  0063                     _chuc2:
   345  0063                            ds      1
   346                           
   347  0064                     _chuclux:
   348  0064                            ds      1
   349                           
   350  0065                     _dvi:
   351  0065                            ds      1
   352                           
   353  0066                     _dvi1:
   354  0066                            ds      1
   355                           
   356  0067                     _dvilux:
   357  0067                            ds      1
   358                           
   359  0068                     _nghin:
   360  0068                            ds      1
   361                           
   362  0069                     _nghin1:
   363  0069                            ds      1
   364                           
   365  006A                     _nghinlux:
   366  006A                            ds      1
   367                           
   368  006B                     _nt1:
   369  006B                            ds      1
   370                           
   371  006C                     _nt2:
   372  006C                            ds      1
   373                           
   374  006D                     _tram:
   375  006D                            ds      1
   376                           
   377  006E                     _tram1:
   378  006E                            ds      1
   379                           
   380  006F                     _tramlux:
   381  006F                            ds      1
   382                           
   383                           psect	bssBANK1,class=BANK1,space=1
   384                           global __pbssBANK1
   385  00A0                     __pbssBANK1:
   386  00A0                     _check:
   387  00A0                            ds      10
   388                           
   389  00AA                     _dosang:
   390  00AA                            ds      3
   391                           
   392  00AD                     _err:
   393  00AD                            ds      3
   394                           
   395  00B0                     _kd1:
   396  00B0                            ds      3
   397                           
   398  00B3                     _ki1:
   399  00B3                            ds      3
   400                           
   401  00B6                     _kp1:
   402  00B6                            ds      3
   403                           
   404  00B9                     _nhietdo:
   405  00B9                            ds      3
   406                           
   407  00BC                     _value1:
   408  00BC                            ds      3
   409                           
   410  00BF                     _flux2:
   411  00BF                            ds      2
   412                           
   413  00C1                     _fnt1:
   414  00C1                            ds      2
   415                           
   416  00C3                     _fnt2:
   417  00C3                            ds      2
   418                           
   419  00C5                     _k:
   420  00C5                            ds      2
   421                           
   422  00C7                     _kp5:
   423  00C7                            ds      2
   424                           
   425  00C9                     _kq:
   426  00C9                            ds      2
   427                           
   428  00CB                     _kq2:
   429  00CB                            ds      2
   430                           
   431  00CD                     _kqkd:
   432  00CD                            ds      2
   433                           
   434  00CF                     _kqki:
   435  00CF                            ds      2
   436                           
   437  00D1                     _kqkp:
   438  00D1                            ds      2
   439                           
   440  00D3                     _lux_set:
   441  00D3                            ds      2
   442                           
   443  00D5                     _m:
   444  00D5                            ds      2
   445                           
   446  00D7                     _n:
   447  00D7                            ds      2
   448                           
   449  00D9                     _nhietdo1:
   450  00D9                            ds      2
   451                           
   452  00DB                     _output:
   453  00DB                            ds      2
   454                           
   455  00DD                     _pre_err:
   456  00DD                            ds      2
   457                           
   458  00DF                     _temp:
   459  00DF                            ds      2
   460                           
   461  00E1                     _value:
   462  00E1                            ds      2
   463                           
   464  00E3                     _value3:
   465  00E3                            ds      2
   466                           
   467  00E5                     _c:
   468  00E5                            ds      1
   469                           
   470  00E6                     _dvi2:
   471  00E6                            ds      1
   472                           
   473                           psect clrtext,class=CODE,delta=2
   474                           global clear_ram
   475                           ;	Called with FSR containing the base address, and
   476                           ;	W with the last address+1
   477  09B1                     clear_ram:
   478  09B1  0064               	clrwdt			;clear the watchdog before getting into this loop
   479  09B2                     clrloop:
   480  09B2  0180               	clrf	indf		;clear RAM location pointed to by FSR
   481  09B3  0A84               	incf	fsr,f		;increment pointer
   482  09B4  0604               	xorwf	fsr,w		;XOR with final address
   483  09B5  1903               	btfsc	status,2	;have we reached the end yet?
   484  09B6  3400               	retlw	0		;all done for this memory range, return
   485  09B7  0604               	xorwf	fsr,w		;XOR again to restore value
   486  09B8  29B2               	goto	clrloop		;do the next byte
   487                           
   488                           ; Clear objects allocated to BITCOMMON
   489                           psect cinit,class=CODE,delta=2
   490  0A03  01F9               	clrf	((__pbitbssCOMMON/8)+0)&07Fh
   491                           ; Clear objects allocated to COMMON
   492                           psect cinit,class=CODE,delta=2
   493  0A04  01F5               	clrf	((__pbssCOMMON)+0)&07Fh
   494  0A05  01F6               	clrf	((__pbssCOMMON)+1)&07Fh
   495  0A06  01F7               	clrf	((__pbssCOMMON)+2)&07Fh
   496  0A07  01F8               	clrf	((__pbssCOMMON)+3)&07Fh
   497                           ; Clear objects allocated to BANK0
   498                           psect cinit,class=CODE,delta=2
   499  0A08  1383               	bcf	status, 7	;select IRP bank0
   500  0A09  305C               	movlw	low(__pbssBANK0)
   501  0A0A  0084               	movwf	fsr
   502  0A0B  3070               	movlw	low((__pbssBANK0)+014h)
   503  0A0C  120A  158A  21B1   	fcall	clear_ram
              120A  158A         
   504                           ; Clear objects allocated to BANK1
   505                           psect cinit,class=CODE,delta=2
   506  0A11  30A0               	movlw	low(__pbssBANK1)
   507  0A12  0084               	movwf	fsr
   508  0A13  30E7               	movlw	low((__pbssBANK1)+047h)
   509  0A14  120A  158A  21B1   	fcall	clear_ram
              120A  158A         
   510                           psect cinit,class=CODE,delta=2
   511                           global end_of_initialization
   512                           
   513                           ;End of C runtime variable initialization code
   514                           
   515  0A19                     end_of_initialization:
   516  0A19  0183               clrf status
   517  0A1A  120A  158A  2E06   ljmp _main	;jump to C main() function
   518                           psect	cstackBANK1,class=BANK1,space=1
   519                           global __pcstackBANK1
   520  00E7                     __pcstackBANK1:
   521                           	global	??_xu_ly_lux
   522  00E7                     ??_xu_ly_lux:	; 0 bytes @ 0x0
   523                           	global	??_send_lux
   524  00E7                     ??_send_lux:	; 0 bytes @ 0x0
   525  00E7                     	ds	1
   526                           	global	_xu_ly_lux$1403
   527  00E8                     _xu_ly_lux$1403:	; 2 bytes @ 0x1
   528                           	global	_send_lux$1404
   529  00E8                     _send_lux$1404:	; 2 bytes @ 0x1
   530  00E8                     	ds	2
   531                           	global	??_main
   532  00EA                     ??_main:	; 0 bytes @ 0x3
   533  00EA                     	ds	1
   534                           psect	cstackCOMMON,class=COMMON,space=1
   535                           global __pcstackCOMMON
   536  0070                     __pcstackCOMMON:
   537                           	global	?_lcd_puts
   538  0070                     ?_lcd_puts:	; 0 bytes @ 0x0
   539                           	global	?_lcd_putc
   540  0070                     ?_lcd_putc:	; 0 bytes @ 0x0
   541                           	global	?_lcd_init
   542  0070                     ?_lcd_init:	; 0 bytes @ 0x0
   543                           	global	?_isprint
   544  0070                     ?_isprint:	; 1 bit 
   545                           	global	?_uart_tx
   546  0070                     ?_uart_tx:	; 0 bytes @ 0x0
   547                           	global	?_uart_isr
   548  0070                     ?_uart_isr:	; 0 bytes @ 0x0
   549                           	global	??_uart_isr
   550  0070                     ??_uart_isr:	; 0 bytes @ 0x0
   551                           	global	?_i2c_dly
   552  0070                     ?_i2c_dly:	; 0 bytes @ 0x0
   553                           	global	?_I2C_start
   554  0070                     ?_I2C_start:	; 0 bytes @ 0x0
   555                           	global	?_I2C_stop
   556  0070                     ?_I2C_stop:	; 0 bytes @ 0x0
   557                           	global	?_I2C_write
   558  0070                     ?_I2C_write:	; 1 bit 
   559                           	global	?_xu_ly_lux
   560  0070                     ?_xu_ly_lux:	; 0 bytes @ 0x0
   561                           	global	?_send_lux
   562  0070                     ?_send_lux:	; 0 bytes @ 0x0
   563                           	global	?_main
   564  0070                     ?_main:	; 0 bytes @ 0x0
   565                           	global	?_lcd_busy
   566  0070                     ?_lcd_busy:	; 1 bytes @ 0x0
   567                           	global	?_I2C_read
   568  0070                     ?_I2C_read:	; 1 bytes @ 0x0
   569                           	global	?_BH1750_read
   570  0070                     ?_BH1750_read:	; 4 bytes @ 0x0
   571  0070                     	ds	5
   572                           psect	cstackBANK0,class=BANK0,space=1
   573                           global __pcstackBANK0
   574  0020                     __pcstackBANK0:
   575                           	global	?_lcd_put_byte
   576  0020                     ?_lcd_put_byte:	; 0 bytes @ 0x0
   577                           	global	??_lcd_busy
   578  0020                     ??_lcd_busy:	; 0 bytes @ 0x0
   579                           	global	??_isprint
   580  0020                     ??_isprint:	; 0 bytes @ 0x0
   581                           	global	??_uart_tx
   582  0020                     ??_uart_tx:	; 0 bytes @ 0x0
   583                           	global	?_delay_ms
   584  0020                     ?_delay_ms:	; 0 bytes @ 0x0
   585                           	global	??_i2c_dly
   586  0020                     ??_i2c_dly:	; 0 bytes @ 0x0
   587                           	global	??_I2C_start
   588  0020                     ??_I2C_start:	; 0 bytes @ 0x0
   589                           	global	??_I2C_stop
   590  0020                     ??_I2C_stop:	; 0 bytes @ 0x0
   591                           	global	??_I2C_read
   592  0020                     ??_I2C_read:	; 0 bytes @ 0x0
   593                           	global	??_I2C_write
   594  0020                     ??_I2C_write:	; 0 bytes @ 0x0
   595                           	global	?___awmod
   596  0020                     ?___awmod:	; 2 bytes @ 0x0
   597                           	global	?___ftpack
   598  0020                     ?___ftpack:	; 3 bytes @ 0x0
   599                           	global	uart_tx@data
   600  0020                     uart_tx@data:	; 1 bytes @ 0x0
   601                           	global	lcd_put_byte@b
   602  0020                     lcd_put_byte@b:	; 1 bytes @ 0x0
   603                           	global	_isprint$1046
   604  0020                     _isprint$1046:	; 1 bytes @ 0x0
   605                           	global	delay_ms@x
   606  0020                     delay_ms@x:	; 2 bytes @ 0x0
   607                           	global	___awmod@divisor
   608  0020                     ___awmod@divisor:	; 2 bytes @ 0x0
   609                           	global	___ftpack@arg
   610  0020                     ___ftpack@arg:	; 3 bytes @ 0x0
   611  0020                     	ds	1
   612                           	global	??_lcd_put_byte
   613  0021                     ??_lcd_put_byte:	; 0 bytes @ 0x1
   614                           	global	I2C_read@ack
   615  0021                     I2C_read@ack:	; 1 bytes @ 0x1
   616                           	global	I2C_write@d
   617  0021                     I2C_write@d:	; 1 bytes @ 0x1
   618                           	global	lcd_busy@busy
   619  0021                     lcd_busy@busy:	; 1 bytes @ 0x1
   620                           	global	isprint@c
   621  0021                     isprint@c:	; 1 bytes @ 0x1
   622  0021                     	ds	1
   623                           	global	??_delay_ms
   624  0022                     ??_delay_ms:	; 0 bytes @ 0x2
   625                           	global	I2C_read@d
   626  0022                     I2C_read@d:	; 1 bytes @ 0x2
   627                           	global	I2C_write@x
   628  0022                     I2C_write@x:	; 1 bytes @ 0x2
   629                           	global	___awmod@dividend
   630  0022                     ___awmod@dividend:	; 2 bytes @ 0x2
   631  0022                     	ds	1
   632                           	global	?_BH1750_write
   633  0023                     ?_BH1750_write:	; 0 bytes @ 0x3
   634                           	global	I2C_read@x
   635  0023                     I2C_read@x:	; 1 bytes @ 0x3
   636                           	global	lcd_put_byte@rs
   637  0023                     lcd_put_byte@rs:	; 1 bytes @ 0x3
   638                           	global	___ftpack@exp
   639  0023                     ___ftpack@exp:	; 1 bytes @ 0x3
   640                           	global	delay_ms@i
   641  0023                     delay_ms@i:	; 2 bytes @ 0x3
   642  0023                     	ds	1
   643                           	global	??___awmod
   644  0024                     ??___awmod:	; 0 bytes @ 0x4
   645                           	global	lcd_put_byte@temp
   646  0024                     lcd_put_byte@temp:	; 1 bytes @ 0x4
   647                           	global	___ftpack@sign
   648  0024                     ___ftpack@sign:	; 1 bytes @ 0x4
   649  0024                     	ds	1
   650                           	global	??_BH1750_write
   651  0025                     ??_BH1750_write:	; 0 bytes @ 0x5
   652                           	global	?_lcd_gotoxy
   653  0025                     ?_lcd_gotoxy:	; 0 bytes @ 0x5
   654                           	global	??_lcd_init
   655  0025                     ??_lcd_init:	; 0 bytes @ 0x5
   656                           	global	??___ftpack
   657  0025                     ??___ftpack:	; 0 bytes @ 0x5
   658                           	global	lcd_gotoxy@row
   659  0025                     lcd_gotoxy@row:	; 1 bytes @ 0x5
   660                           	global	___awmod@counter
   661  0025                     ___awmod@counter:	; 1 bytes @ 0x5
   662  0025                     	ds	1
   663                           	global	??_lcd_gotoxy
   664  0026                     ??_lcd_gotoxy:	; 0 bytes @ 0x6
   665                           	global	___awmod@sign
   666  0026                     ___awmod@sign:	; 1 bytes @ 0x6
   667  0026                     	ds	1
   668                           	global	?___awdiv
   669  0027                     ?___awdiv:	; 2 bytes @ 0x7
   670                           	global	lcd_gotoxy@col
   671  0027                     lcd_gotoxy@col:	; 1 bytes @ 0x7
   672                           	global	___awdiv@divisor
   673  0027                     ___awdiv@divisor:	; 2 bytes @ 0x7
   674  0027                     	ds	1
   675                           	global	?___ftneg
   676  0028                     ?___ftneg:	; 3 bytes @ 0x8
   677                           	global	lcd_gotoxy@address
   678  0028                     lcd_gotoxy@address:	; 1 bytes @ 0x8
   679                           	global	___ftneg@f1
   680  0028                     ___ftneg@f1:	; 3 bytes @ 0x8
   681  0028                     	ds	1
   682                           	global	??_lcd_putc
   683  0029                     ??_lcd_putc:	; 0 bytes @ 0x9
   684                           	global	___awdiv@dividend
   685  0029                     ___awdiv@dividend:	; 2 bytes @ 0x9
   686  0029                     	ds	1
   687                           	global	lcd_putc@c
   688  002A                     lcd_putc@c:	; 1 bytes @ 0xA
   689  002A                     	ds	1
   690                           	global	??_lcd_puts
   691  002B                     ??_lcd_puts:	; 0 bytes @ 0xB
   692                           	global	??___awdiv
   693  002B                     ??___awdiv:	; 0 bytes @ 0xB
   694                           	global	??___ftneg
   695  002B                     ??___ftneg:	; 0 bytes @ 0xB
   696                           	global	?___fttol
   697  002B                     ?___fttol:	; 4 bytes @ 0xB
   698                           	global	___fttol@f1
   699  002B                     ___fttol@f1:	; 3 bytes @ 0xB
   700  002B                     	ds	1
   701                           	global	lcd_puts@s
   702  002C                     lcd_puts@s:	; 1 bytes @ 0xC
   703                           	global	___awdiv@counter
   704  002C                     ___awdiv@counter:	; 1 bytes @ 0xC
   705  002C                     	ds	1
   706                           	global	___awdiv@sign
   707  002D                     ___awdiv@sign:	; 1 bytes @ 0xD
   708  002D                     	ds	1
   709                           	global	___awdiv@quotient
   710  002E                     ___awdiv@quotient:	; 2 bytes @ 0xE
   711  002E                     	ds	1
   712                           	global	??___fttol
   713  002F                     ??___fttol:	; 0 bytes @ 0xF
   714  002F                     	ds	4
   715                           	global	___fttol@sign1
   716  0033                     ___fttol@sign1:	; 1 bytes @ 0x13
   717  0033                     	ds	1
   718                           	global	___fttol@lval
   719  0034                     ___fttol@lval:	; 4 bytes @ 0x14
   720  0034                     	ds	4
   721                           	global	___fttol@exp1
   722  0038                     ___fttol@exp1:	; 1 bytes @ 0x18
   723  0038                     	ds	1
   724                           	global	?___awtoft
   725  0039                     ?___awtoft:	; 3 bytes @ 0x19
   726                           	global	___awtoft@c
   727  0039                     ___awtoft@c:	; 2 bytes @ 0x19
   728  0039                     	ds	3
   729                           	global	??___awtoft
   730  003C                     ??___awtoft:	; 0 bytes @ 0x1C
   731  003C                     	ds	2
   732                           	global	___awtoft@sign
   733  003E                     ___awtoft@sign:	; 1 bytes @ 0x1E
   734  003E                     	ds	1
   735                           	global	?___ftadd
   736  003F                     ?___ftadd:	; 3 bytes @ 0x1F
   737                           	global	?___ftdiv
   738  003F                     ?___ftdiv:	; 3 bytes @ 0x1F
   739                           	global	___ftadd@f1
   740  003F                     ___ftadd@f1:	; 3 bytes @ 0x1F
   741                           	global	___ftdiv@f2
   742  003F                     ___ftdiv@f2:	; 3 bytes @ 0x1F
   743  003F                     	ds	3
   744                           	global	___ftadd@f2
   745  0042                     ___ftadd@f2:	; 3 bytes @ 0x22
   746                           	global	___ftdiv@f1
   747  0042                     ___ftdiv@f1:	; 3 bytes @ 0x22
   748  0042                     	ds	3
   749                           	global	??___ftadd
   750  0045                     ??___ftadd:	; 0 bytes @ 0x25
   751                           	global	??___ftdiv
   752  0045                     ??___ftdiv:	; 0 bytes @ 0x25
   753  0045                     	ds	4
   754                           	global	___ftadd@sign
   755  0049                     ___ftadd@sign:	; 1 bytes @ 0x29
   756                           	global	___ftdiv@cntr
   757  0049                     ___ftdiv@cntr:	; 1 bytes @ 0x29
   758  0049                     	ds	1
   759                           	global	___ftadd@exp2
   760  004A                     ___ftadd@exp2:	; 1 bytes @ 0x2A
   761                           	global	___ftdiv@f3
   762  004A                     ___ftdiv@f3:	; 3 bytes @ 0x2A
   763  004A                     	ds	1
   764                           	global	___ftadd@exp1
   765  004B                     ___ftadd@exp1:	; 1 bytes @ 0x2B
   766  004B                     	ds	1
   767                           	global	?___ftmul
   768  004C                     ?___ftmul:	; 3 bytes @ 0x2C
   769                           	global	___ftmul@f1
   770  004C                     ___ftmul@f1:	; 3 bytes @ 0x2C
   771  004C                     	ds	1
   772                           	global	___ftdiv@exp
   773  004D                     ___ftdiv@exp:	; 1 bytes @ 0x2D
   774  004D                     	ds	1
   775                           	global	___ftdiv@sign
   776  004E                     ___ftdiv@sign:	; 1 bytes @ 0x2E
   777  004E                     	ds	1
   778                           	global	??_BH1750_read
   779  004F                     ??_BH1750_read:	; 0 bytes @ 0x2F
   780                           	global	___ftmul@f2
   781  004F                     ___ftmul@f2:	; 3 bytes @ 0x2F
   782  004F                     	ds	2
   783                           	global	BH1750_read@lb
   784  0051                     BH1750_read@lb:	; 1 bytes @ 0x31
   785  0051                     	ds	1
   786                           	global	??___ftmul
   787  0052                     ??___ftmul:	; 0 bytes @ 0x32
   788                           	global	BH1750_read@hb
   789  0052                     BH1750_read@hb:	; 1 bytes @ 0x32
   790  0052                     	ds	4
   791                           	global	___ftmul@exp
   792  0056                     ___ftmul@exp:	; 1 bytes @ 0x36
   793  0056                     	ds	1
   794                           	global	___ftmul@f3_as_product
   795  0057                     ___ftmul@f3_as_product:	; 3 bytes @ 0x37
   796  0057                     	ds	3
   797                           	global	___ftmul@cntr
   798  005A                     ___ftmul@cntr:	; 1 bytes @ 0x3A
   799  005A                     	ds	1
   800                           	global	___ftmul@sign
   801  005B                     ___ftmul@sign:	; 1 bytes @ 0x3B
   802  005B                     	ds	1
   803 ;;Data sizes: Strings 6, constant 0, data 0, bss 95, persistent 0 stack 0
   804 ;;Auto spaces:   Size  Autos    Used
   805 ;; COMMON          14      5      10
   806 ;; BANK0           80     60      80
   807 ;; BANK1           80      4      75
   808 ;; BANK3           96      0       0
   809 ;; BANK2           96      0       0
   810                           
   811 ;;
   812 ;; Pointer list with targets:
   813                           
   814 ;; ?___ftpack	float  size(1) Largest target is 0
   815 ;;
   816 ;; ?___fttol	long  size(1) Largest target is 0
   817 ;;
   818 ;; ?___ftadd	float  size(1) Largest target is 0
   819 ;;
   820 ;; ?___ftneg	float  size(1) Largest target is 0
   821 ;;
   822 ;; ?___ftmul	float  size(1) Largest target is 0
   823 ;;
   824 ;; ?___awmod	int  size(1) Largest target is 0
   825 ;;
   826 ;; ?___awdiv	int  size(1) Largest target is 0
   827 ;;
   828 ;; ?___ftdiv	float  size(1) Largest target is 0
   829 ;;
   830 ;; ?___awtoft	float  size(1) Largest target is 0
   831 ;;
   832 ;; lcd_puts@s	PTR const unsigned char  size(1) Largest target is 6
   833 ;;		 -> STR_1(CODE[6]), 
   834 ;;
   835                           
   836                           
   837 ;;
   838 ;; Critical Paths under _main in COMMON
   839 ;;
   840 ;;   None.
   841 ;;
   842 ;; Critical Paths under _uart_isr in COMMON
   843 ;;
   844 ;;   None.
   845 ;;
   846 ;; Critical Paths under _main in BANK0
   847 ;;
   848 ;;   _xu_ly_lux->___ftmul
   849 ;;   _lcd_puts->_lcd_putc
   850 ;;   _lcd_putc->_lcd_gotoxy
   851 ;;   _lcd_init->_lcd_put_byte
   852 ;;   _send_lux->___ftmul
   853 ;;   _lcd_gotoxy->_lcd_put_byte
   854 ;;   _BH1750_read->___ftdiv
   855 ;;   _BH1750_write->_I2C_write
   856 ;;   ___awtoft->___fttol
   857 ;;   ___ftmul->___ftadd
   858 ;;   ___ftdiv->___awtoft
   859 ;;   ___ftadd->___awtoft
   860 ;;   ___ftneg->___ftpack
   861 ;;   ___awdiv->___awmod
   862 ;;   ___fttol->___ftneg
   863 ;;
   864 ;; Critical Paths under _uart_isr in BANK0
   865 ;;
   866 ;;   None.
   867 ;;
   868 ;; Critical Paths under _main in BANK1
   869 ;;
   870 ;;   _main->_xu_ly_lux
   871 ;;   _main->_send_lux
   872 ;;
   873 ;; Critical Paths under _uart_isr in BANK1
   874 ;;
   875 ;;   None.
   876 ;;
   877 ;; Critical Paths under _main in BANK3
   878 ;;
   879 ;;   None.
   880 ;;
   881 ;; Critical Paths under _uart_isr in BANK3
   882 ;;
   883 ;;   None.
   884 ;;
   885 ;; Critical Paths under _main in BANK2
   886 ;;
   887 ;;   None.
   888 ;;
   889 ;; Critical Paths under _uart_isr in BANK2
   890 ;;
   891 ;;   None.
   892                           
   893 ;;
   894 ;;Main: autosize = 0, tempsize = 1, incstack = 0, save=0
   895 ;;
   896                           
   897 ;;
   898 ;;Call Graph Tables:
   899 ;;
   900 ;; ---------------------------------------------------------------------------------
   901 ;; (Depth) Function   	        Calls       Base Space   Used Autos Params    Refs
   902 ;; ---------------------------------------------------------------------------------
   903 ;; (0) _main                                                 1     1      0   11549
   904 ;;                                              3 BANK1      1     1      0
   905 ;;                           _lcd_init
   906 ;;                           _delay_ms
   907 ;;                       _BH1750_write
   908 ;;                        _BH1750_read
   909 ;;                          _xu_ly_lux
   910 ;;                           _send_lux
   911 ;; ---------------------------------------------------------------------------------
   912 ;; (1) _xu_ly_lux                                            3     3      0    7420
   913 ;;                                              0 BANK1      3     3      0
   914 ;;                         _lcd_gotoxy
   915 ;;                           _lcd_puts
   916 ;;                           _lcd_putc
   917 ;;                           _delay_ms
   918 ;;                            ___ftdiv
   919 ;;                            ___fttol
   920 ;;                            ___awdiv
   921 ;;                            ___awmod
   922 ;;                           ___awtoft
   923 ;;                            ___ftneg
   924 ;;                            ___ftadd
   925 ;;                            ___ftmul
   926 ;; ---------------------------------------------------------------------------------
   927 ;; (2) _lcd_puts                                             2     2      0    1053
   928 ;;                                             11 BANK0      2     2      0
   929 ;;                           _lcd_putc
   930 ;; ---------------------------------------------------------------------------------
   931 ;; (2) _lcd_putc                                             2     2      0     988
   932 ;;                                              9 BANK0      2     2      0
   933 ;;                       _lcd_put_byte
   934 ;;                           _lcd_busy
   935 ;;                         _lcd_gotoxy
   936 ;;                            _isprint
   937 ;; ---------------------------------------------------------------------------------
   938 ;; (1) _lcd_init                                             3     3      0     347
   939 ;;                                              5 BANK0      2     2      0
   940 ;;                       _lcd_put_byte
   941 ;;                           _lcd_busy
   942 ;; ---------------------------------------------------------------------------------
   943 ;; (1) _send_lux                                             3     3      0    2182
   944 ;;                                              0 BANK1      3     3      0
   945 ;;                            ___ftmul
   946 ;;                            ___fttol
   947 ;;                            ___awdiv
   948 ;;                            ___awmod
   949 ;;                            _uart_tx
   950 ;;                           _delay_ms
   951 ;; ---------------------------------------------------------------------------------
   952 ;; (3) _lcd_gotoxy                                           4     3      1     449
   953 ;;                                              5 BANK0      4     3      1
   954 ;;                       _lcd_put_byte
   955 ;;                           _lcd_busy
   956 ;; ---------------------------------------------------------------------------------
   957 ;; (1) _BH1750_read                                          4     4      0    1461
   958 ;;                                             47 BANK0      4     4      0
   959 ;;                          _I2C_start
   960 ;;                          _I2C_write
   961 ;;                           _I2C_read
   962 ;;                           _I2C_stop
   963 ;;                           ___awtoft
   964 ;;                            ___ftdiv
   965 ;; ---------------------------------------------------------------------------------
   966 ;; (1) _BH1750_write                                         2     0      2      71
   967 ;;                                              3 BANK0      2     0      2
   968 ;;                          _I2C_start
   969 ;;                          _I2C_write
   970 ;;                           _I2C_stop
   971 ;; ---------------------------------------------------------------------------------
   972 ;; (2) ___awtoft                                             6     3      3     445
   973 ;;                                             25 BANK0      6     3      3
   974 ;;                           ___ftpack
   975 ;;                            ___ftneg (ARG)
   976 ;;                            ___fttol (ARG)
   977 ;; ---------------------------------------------------------------------------------
   978 ;; (2) ___ftmul                                             16    10      6     800
   979 ;;                                             44 BANK0     16    10      6
   980 ;;                           ___ftpack
   981 ;;                            ___ftadd (ARG)
   982 ;;                            ___ftneg (ARG)
   983 ;;                           ___awtoft (ARG)
   984 ;;                            ___fttol (ARG)
   985 ;; ---------------------------------------------------------------------------------
   986 ;; (2) ___ftdiv                                             16    10      6     732
   987 ;;                                             31 BANK0     16    10      6
   988 ;;                           ___ftpack
   989 ;;                            ___fttol (ARG)
   990 ;;                           ___awtoft (ARG)
   991 ;; ---------------------------------------------------------------------------------
   992 ;; (2) ___ftadd                                             13     7      6    1537
   993 ;;                                             31 BANK0     13     7      6
   994 ;;                           ___ftpack
   995 ;;                            ___ftneg (ARG)
   996 ;;                           ___awtoft (ARG)
   997 ;;                            ___fttol (ARG)
   998 ;; ---------------------------------------------------------------------------------
   999 ;; (4) _lcd_busy                                             2     2      0      34
  1000 ;;                                              0 BANK0      2     2      0
  1001 ;; ---------------------------------------------------------------------------------
  1002 ;; (4) _lcd_put_byte                                         5     4      1     313
  1003 ;;                                              0 BANK0      5     4      1
  1004 ;; ---------------------------------------------------------------------------------
  1005 ;; (2) _I2C_write                                            3     3      0      71
  1006 ;;                                              0 BANK0      3     3      0
  1007 ;;                            _i2c_dly
  1008 ;; ---------------------------------------------------------------------------------
  1009 ;; (2) _I2C_read                                             4     4      0     139
  1010 ;;                                              0 BANK0      4     4      0
  1011 ;;                            _i2c_dly
  1012 ;; ---------------------------------------------------------------------------------
  1013 ;; (2) _I2C_stop                                             0     0      0       0
  1014 ;;                            _i2c_dly
  1015 ;; ---------------------------------------------------------------------------------
  1016 ;; (2) _I2C_start                                            0     0      0       0
  1017 ;;                            _i2c_dly
  1018 ;; ---------------------------------------------------------------------------------
  1019 ;; (2) _delay_ms                                             5     3      2      68
  1020 ;;                                              0 BANK0      5     3      2
  1021 ;; ---------------------------------------------------------------------------------
  1022 ;; (2) ___awmod                                              7     3      4     433
  1023 ;;                                              0 BANK0      7     3      4
  1024 ;; ---------------------------------------------------------------------------------
  1025 ;; (2) ___ftneg                                              3     0      3      65
  1026 ;;                                              8 BANK0      3     0      3
  1027 ;;                           ___ftpack (ARG)
  1028 ;; ---------------------------------------------------------------------------------
  1029 ;; (2) ___awdiv                                              9     5      4     445
  1030 ;;                                              7 BANK0      9     5      4
  1031 ;;                            ___awmod (ARG)
  1032 ;; ---------------------------------------------------------------------------------
  1033 ;; (2) ___fttol                                             14    10      4     371
  1034 ;;                                             11 BANK0     14    10      4
  1035 ;;                           ___ftpack (ARG)
  1036 ;;                            ___ftneg (ARG)
  1037 ;; ---------------------------------------------------------------------------------
  1038 ;; (3) ___ftpack                                             8     3      5     312
  1039 ;;                                              0 BANK0      8     3      5
  1040 ;; ---------------------------------------------------------------------------------
  1041 ;; (3) _isprint                                              2     2      0      99
  1042 ;;                                              0 BANK0      2     2      0
  1043 ;; ---------------------------------------------------------------------------------
  1044 ;; (3) _i2c_dly                                              0     0      0       0
  1045 ;; ---------------------------------------------------------------------------------
  1046 ;; (2) _uart_tx                                              1     1      0      31
  1047 ;;                                              0 BANK0      1     1      0
  1048 ;; ---------------------------------------------------------------------------------
  1049 ;; Estimated maximum stack depth 4
  1050 ;; ---------------------------------------------------------------------------------
  1051 ;; (Depth) Function   	        Calls       Base Space   Used Autos Params    Refs
  1052 ;; ---------------------------------------------------------------------------------
  1053 ;; (6) _uart_isr                                             5     5      0       0
  1054 ;;                                              0 COMMON     5     5      0
  1055 ;; ---------------------------------------------------------------------------------
  1056 ;; Estimated maximum stack depth 6
  1057 ;; ---------------------------------------------------------------------------------
  1058                           
  1059 ;; Call Graph Graphs:
  1060                           
  1061 ;; _main (ROOT)
  1062 ;;   _lcd_init
  1063 ;;     _lcd_put_byte
  1064 ;;     _lcd_busy
  1065 ;;   _delay_ms
  1066 ;;   _BH1750_write
  1067 ;;     _I2C_start
  1068 ;;       _i2c_dly
  1069 ;;     _I2C_write
  1070 ;;       _i2c_dly
  1071 ;;     _I2C_stop
  1072 ;;       _i2c_dly
  1073 ;;   _BH1750_read
  1074 ;;     _I2C_start
  1075 ;;       _i2c_dly
  1076 ;;     _I2C_write
  1077 ;;       _i2c_dly
  1078 ;;     _I2C_read
  1079 ;;       _i2c_dly
  1080 ;;     _I2C_stop
  1081 ;;       _i2c_dly
  1082 ;;     ___awtoft
  1083 ;;       ___ftpack
  1084 ;;       ___ftneg (ARG)
  1085 ;;         ___ftpack (ARG)
  1086 ;;       ___fttol (ARG)
  1087 ;;         ___ftpack (ARG)
  1088 ;;         ___ftneg (ARG)
  1089 ;;           ___ftpack (ARG)
  1090 ;;     ___ftdiv
  1091 ;;       ___ftpack
  1092 ;;       ___fttol (ARG)
  1093 ;;         ___ftpack (ARG)
  1094 ;;         ___ftneg (ARG)
  1095 ;;           ___ftpack (ARG)
  1096 ;;       ___awtoft (ARG)
  1097 ;;         ___ftpack
  1098 ;;         ___ftneg (ARG)
  1099 ;;           ___ftpack (ARG)
  1100 ;;         ___fttol (ARG)
  1101 ;;           ___ftpack (ARG)
  1102 ;;           ___ftneg (ARG)
  1103 ;;             ___ftpack (ARG)
  1104 ;;   _xu_ly_lux
  1105 ;;     _lcd_gotoxy
  1106 ;;       _lcd_put_byte
  1107 ;;       _lcd_busy
  1108 ;;     _lcd_puts
  1109 ;;       _lcd_putc
  1110 ;;         _lcd_put_byte
  1111 ;;         _lcd_busy
  1112 ;;         _lcd_gotoxy
  1113 ;;           _lcd_put_byte
  1114 ;;           _lcd_busy
  1115 ;;         _isprint
  1116 ;;     _lcd_putc
  1117 ;;       _lcd_put_byte
  1118 ;;       _lcd_busy
  1119 ;;       _lcd_gotoxy
  1120 ;;         _lcd_put_byte
  1121 ;;         _lcd_busy
  1122 ;;       _isprint
  1123 ;;     _delay_ms
  1124 ;;     ___ftdiv
  1125 ;;       ___ftpack
  1126 ;;       ___fttol (ARG)
  1127 ;;         ___ftpack (ARG)
  1128 ;;         ___ftneg (ARG)
  1129 ;;           ___ftpack (ARG)
  1130 ;;       ___awtoft (ARG)
  1131 ;;         ___ftpack
  1132 ;;         ___ftneg (ARG)
  1133 ;;           ___ftpack (ARG)
  1134 ;;         ___fttol (ARG)
  1135 ;;           ___ftpack (ARG)
  1136 ;;           ___ftneg (ARG)
  1137 ;;             ___ftpack (ARG)
  1138 ;;     ___fttol
  1139 ;;       ___ftpack (ARG)
  1140 ;;       ___ftneg (ARG)
  1141 ;;         ___ftpack (ARG)
  1142 ;;     ___awdiv
  1143 ;;       ___awmod (ARG)
  1144 ;;     ___awmod
  1145 ;;     ___awtoft
  1146 ;;       ___ftpack
  1147 ;;       ___ftneg (ARG)
  1148 ;;         ___ftpack (ARG)
  1149 ;;       ___fttol (ARG)
  1150 ;;         ___ftpack (ARG)
  1151 ;;         ___ftneg (ARG)
  1152 ;;           ___ftpack (ARG)
  1153 ;;     ___ftneg
  1154 ;;       ___ftpack (ARG)
  1155 ;;     ___ftadd
  1156 ;;       ___ftpack
  1157 ;;       ___ftneg (ARG)
  1158 ;;         ___ftpack (ARG)
  1159 ;;       ___awtoft (ARG)
  1160 ;;         ___ftpack
  1161 ;;         ___ftneg (ARG)
  1162 ;;           ___ftpack (ARG)
  1163 ;;         ___fttol (ARG)
  1164 ;;           ___ftpack (ARG)
  1165 ;;           ___ftneg (ARG)
  1166 ;;             ___ftpack (ARG)
  1167 ;;       ___fttol (ARG)
  1168 ;;         ___ftpack (ARG)
  1169 ;;         ___ftneg (ARG)
  1170 ;;           ___ftpack (ARG)
  1171 ;;     ___ftmul
  1172 ;;       ___ftpack
  1173 ;;       ___ftadd (ARG)
  1174 ;;         ___ftpack
  1175 ;;         ___ftneg (ARG)
  1176 ;;           ___ftpack (ARG)
  1177 ;;         ___awtoft (ARG)
  1178 ;;           ___ftpack
  1179 ;;           ___ftneg (ARG)
  1180 ;;             ___ftpack (ARG)
  1181 ;;           ___fttol (ARG)
  1182 ;;             ___ftpack (ARG)
  1183 ;;             ___ftneg (ARG)
  1184 ;;               ___ftpack (ARG)
  1185 ;;         ___fttol (ARG)
  1186 ;;           ___ftpack (ARG)
  1187 ;;           ___ftneg (ARG)
  1188 ;;             ___ftpack (ARG)
  1189 ;;       ___ftneg (ARG)
  1190 ;;         ___ftpack (ARG)
  1191 ;;       ___awtoft (ARG)
  1192 ;;         ___ftpack
  1193 ;;         ___ftneg (ARG)
  1194 ;;           ___ftpack (ARG)
  1195 ;;         ___fttol (ARG)
  1196 ;;           ___ftpack (ARG)
  1197 ;;           ___ftneg (ARG)
  1198 ;;             ___ftpack (ARG)
  1199 ;;       ___fttol (ARG)
  1200 ;;         ___ftpack (ARG)
  1201 ;;         ___ftneg (ARG)
  1202 ;;           ___ftpack (ARG)
  1203 ;;   _send_lux
  1204 ;;     ___ftmul
  1205 ;;       ___ftpack
  1206 ;;       ___ftadd (ARG)
  1207 ;;         ___ftpack
  1208 ;;         ___ftneg (ARG)
  1209 ;;           ___ftpack (ARG)
  1210 ;;         ___awtoft (ARG)
  1211 ;;           ___ftpack
  1212 ;;           ___ftneg (ARG)
  1213 ;;             ___ftpack (ARG)
  1214 ;;           ___fttol (ARG)
  1215 ;;             ___ftpack (ARG)
  1216 ;;             ___ftneg (ARG)
  1217 ;;               ___ftpack (ARG)
  1218 ;;         ___fttol (ARG)
  1219 ;;           ___ftpack (ARG)
  1220 ;;           ___ftneg (ARG)
  1221 ;;             ___ftpack (ARG)
  1222 ;;       ___ftneg (ARG)
  1223 ;;         ___ftpack (ARG)
  1224 ;;       ___awtoft (ARG)
  1225 ;;         ___ftpack
  1226 ;;         ___ftneg (ARG)
  1227 ;;           ___ftpack (ARG)
  1228 ;;         ___fttol (ARG)
  1229 ;;           ___ftpack (ARG)
  1230 ;;           ___ftneg (ARG)
  1231 ;;             ___ftpack (ARG)
  1232 ;;       ___fttol (ARG)
  1233 ;;         ___ftpack (ARG)
  1234 ;;         ___ftneg (ARG)
  1235 ;;           ___ftpack (ARG)
  1236 ;;     ___fttol
  1237 ;;       ___ftpack (ARG)
  1238 ;;       ___ftneg (ARG)
  1239 ;;         ___ftpack (ARG)
  1240 ;;     ___awdiv
  1241 ;;       ___awmod (ARG)
  1242 ;;     ___awmod
  1243 ;;     _uart_tx
  1244 ;;     _delay_ms
  1245 ;;
  1246 ;; _uart_isr (ROOT)
  1247 ;;
  1248                           
  1249 ;; Address spaces:
  1250                           
  1251 ;;Name               Size   Autos  Total    Cost      Usage
  1252 ;;BITCOMMON            E      0       1       0        7.1%
  1253 ;;EEDATA             100      0       0       0        0.0%
  1254 ;;NULL                 0      0       0       0        0.0%
  1255 ;;CODE                 0      0       0       0        0.0%
  1256 ;;COMMON               E      5       A       1       71.4%
  1257 ;;BITSFR0              0      0       0       1        0.0%
  1258 ;;SFR0                 0      0       0       1        0.0%
  1259 ;;BITSFR1              0      0       0       2        0.0%
  1260 ;;SFR1                 0      0       0       2        0.0%
  1261 ;;STACK                0      0       5       2        0.0%
  1262 ;;ABS                  0      0      A5       3        0.0%
  1263 ;;BITBANK0            50      0       0       4        0.0%
  1264 ;;BITSFR3              0      0       0       4        0.0%
  1265 ;;SFR3                 0      0       0       4        0.0%
  1266 ;;BANK0               50     3C      50       5      100.0%
  1267 ;;BITSFR2              0      0       0       5        0.0%
  1268 ;;SFR2                 0      0       0       5        0.0%
  1269 ;;BITBANK1            50      0       0       6        0.0%
  1270 ;;BANK1               50      4      4B       7       93.8%
  1271 ;;BITBANK3            60      0       0       8        0.0%
  1272 ;;BANK3               60      0       0       9        0.0%
  1273 ;;BITBANK2            60      0       0      10        0.0%
  1274 ;;BANK2               60      0       0      11        0.0%
  1275 ;;DATA                 0      0      AA      12        0.0%
  1276                           
  1277                           	global	_main
  1278                           psect	maintext,global,class=CODE,delta=2
  1279                           global __pmaintext
  1280  0E06                     __pmaintext:
  1281                           
  1282 ;; *************** function _main *****************
  1283 ;; Defined at:
  1284 ;;		line 256 in file "C:\Users\Administrator\Desktop\CODE1-ACE5\CODE1-FRAME WORK\CODE MPLAP\main.c"
  1285 ;; Parameters:    Size  Location     Type
  1286 ;;		None
  1287 ;; Auto vars:     Size  Location     Type
  1288 ;;		None
  1289 ;; Return value:  Size  Location     Type
  1290 ;;		None               void
  1291 ;; Registers used:
  1292 ;;		wreg, fsr0l, fsr0h, status,2, status,0, btemp+1, pclath, cstack
  1293 ;; Tracked objects:
  1294 ;;		On entry : 17F/0
  1295 ;;		On exit  : 0/0
  1296 ;;		Unchanged: 0/0
  1297 ;; Data sizes:     COMMON   BANK0   BANK1   BANK3   BANK2
  1298 ;;      Params:         0       0       0       0       0
  1299 ;;      Locals:         0       0       0       0       0
  1300 ;;      Temps:          0       0       1       0       0
  1301 ;;      Totals:         0       0       1       0       0
  1302 ;;Total ram usage:        1 bytes
  1303 ;; Hardware stack levels required when called:    6
  1304 ;; This function calls:
  1305 ;;		_lcd_init
  1306 ;;		_delay_ms
  1307 ;;		_BH1750_write
  1308 ;;		_BH1750_read
  1309 ;;		_xu_ly_lux
  1310 ;;		_send_lux
  1311 ;; This function is called by:
  1312 ;;		Startup code after reset
  1313 ;; This function uses a non-reentrant model
  1314 ;;
  1315                           psect	maintext
  1316                           	file	"C:\Users\Administrator\Desktop\CODE1-ACE5\CODE1-FRAME WORK\CODE MPLAP\main.c"
  1317                           	line	256
  1318                           	global	__size_of_main
  1319  0092                     	__size_of_main	equ	__end_of_main-_main
  1320                           	
  1321  0E06                     _main:	
  1322                           	opt	stack 2
  1323                           ; Regs used in _main: [wreg-fsr0h+status,2+status,0+btemp+1+pclath+cstack]
  1324                           	line	258
  1325                           	
  1326  0E06                     l5624:	
  1327                           ;main.c: 258: ANSEL=0;
  1328  0E06  1683               	bsf	status, 5	;RP0=1, select bank3
  1329  0E07  1703               	bsf	status, 6	;RP1=1, select bank3
  1330  0E08  0188               	clrf	(392)^0180h	;volatile
  1331                           	line	259
  1332                           ;main.c: 259: ANSELH=0;
  1333  0E09  0189               	clrf	(393)^0180h	;volatile
  1334                           	line	260
  1335                           	
  1336  0E0A                     l5626:	
  1337                           ;main.c: 260: lcd_init();
  1338  0E0A  120A  118A  24D9   	fcall	_lcd_init
              120A  158A         
  1339                           	line	262
  1340                           	
  1341  0E0F                     l5628:	
  1342                           ;main.c: 262: SPBRGH=0;
  1343  0E0F  1683               	bsf	status, 5	;RP0=1, select bank1
  1344  0E10  1303               	bcf	status, 6	;RP1=0, select bank1
  1345  0E11  019A               	clrf	(154)^080h	;volatile
  1346                           	line	263
  1347                           	
  1348  0E12                     l5630:	
  1349                           ;main.c: 263: BRG16=1;
  1350  0E12  1683               	bsf	status, 5	;RP0=1, select bank3
  1351  0E13  1703               	bsf	status, 6	;RP1=1, select bank3
  1352  0E14  1587               	bsf	(3131/8)^0180h,(3131)&7
  1353                           	line	264
  1354                           	
  1355  0E15                     l5632:	
  1356                           ;main.c: 264: SPBRG=129;
  1357  0E15  3081               	movlw	(081h)
  1358  0E16  1683               	bsf	status, 5	;RP0=1, select bank1
  1359  0E17  1303               	bcf	status, 6	;RP1=0, select bank1
  1360  0E18  0099               	movwf	(153)^080h	;volatile
  1361                           	line	265
  1362                           	
  1363  0E19                     l5634:	
  1364                           ;main.c: 265: TXSTA=0x20;
  1365  0E19  3020               	movlw	(020h)
  1366  0E1A  0098               	movwf	(152)^080h	;volatile
  1367                           	line	266
  1368                           	
  1369  0E1B                     l5636:	
  1370                           ;main.c: 266: RCSTA=0x90;
  1371  0E1B  3090               	movlw	(090h)
  1372  0E1C  1283               	bcf	status, 5	;RP0=0, select bank0
  1373  0E1D  1303               	bcf	status, 6	;RP1=0, select bank0
  1374  0E1E  0098               	movwf	(24)	;volatile
  1375                           	line	267
  1376                           	
  1377  0E1F                     l5638:	
  1378                           ;main.c: 267: SYNC=0;
  1379  0E1F  1683               	bsf	status, 5	;RP0=1, select bank1
  1380  0E20  1303               	bcf	status, 6	;RP1=0, select bank1
  1381  0E21  1218               	bcf	(1220/8)^080h,(1220)&7
  1382                           	line	268
  1383                           	
  1384  0E22                     l5640:	
  1385                           ;main.c: 268: c=RCREG;
  1386  0E22  1283               	bcf	status, 5	;RP0=0, select bank0
  1387  0E23  1303               	bcf	status, 6	;RP1=0, select bank0
  1388  0E24  081A               	movf	(26),w	;volatile
  1389  0E25  1683               	bsf	status, 5	;RP0=1, select bank1
  1390  0E26  1303               	bcf	status, 6	;RP1=0, select bank1
  1391  0E27  00EA               	movwf	(??_main+0)^080h+0
  1392  0E28  086A               	movf	(??_main+0)^080h+0,w
  1393  0E29  00E5               	movwf	(_c)^080h
  1394                           	line	269
  1395                           	
  1396  0E2A                     l5642:	
  1397                           ;main.c: 269: RCIE=1;
  1398  0E2A  168C               	bsf	(1125/8)^080h,(1125)&7
  1399                           	line	270
  1400                           	
  1401  0E2B                     l5644:	
  1402                           ;main.c: 270: PEIE=1;
  1403  0E2B  170B               	bsf	(94/8),(94)&7
  1404                           	line	271
  1405                           	
  1406  0E2C                     l5646:	
  1407                           ;main.c: 271: GIE=1;
  1408  0E2C  178B               	bsf	(95/8),(95)&7
  1409                           	line	273
  1410                           	
  1411  0E2D                     l5648:	
  1412                           ;main.c: 273: PORTC=0;
  1413  0E2D  1283               	bcf	status, 5	;RP0=0, select bank0
  1414  0E2E  1303               	bcf	status, 6	;RP1=0, select bank0
  1415  0E2F  0187               	clrf	(7)	;volatile
  1416                           	line	274
  1417                           	
  1418  0E30                     l5650:	
  1419                           ;main.c: 274: TRISC1=0;
  1420  0E30  1683               	bsf	status, 5	;RP0=1, select bank1
  1421  0E31  1303               	bcf	status, 6	;RP1=0, select bank1
  1422  0E32  1087               	bcf	(1081/8)^080h,(1081)&7
  1423                           	line	275
  1424                           	
  1425  0E33                     l5652:	
  1426                           ;main.c: 275: TRISC2=0;
  1427  0E33  1107               	bcf	(1082/8)^080h,(1082)&7
  1428                           	line	276
  1429                           	
  1430  0E34                     l5654:	
  1431                           ;main.c: 276: CCP1CON=0X0C;
  1432  0E34  300C               	movlw	(0Ch)
  1433  0E35  1283               	bcf	status, 5	;RP0=0, select bank0
  1434  0E36  1303               	bcf	status, 6	;RP1=0, select bank0
  1435  0E37  0097               	movwf	(23)	;volatile
  1436                           	line	277
  1437                           	
  1438  0E38                     l5656:	
  1439                           ;main.c: 277: T2CON=0X01;
  1440  0E38  3001               	movlw	(01h)
  1441  0E39  0092               	movwf	(18)	;volatile
  1442                           	line	278
  1443                           	
  1444  0E3A                     l5658:	
  1445                           ;main.c: 278: TMR2ON=1;
  1446  0E3A  1512               	bsf	(146/8),(146)&7
  1447                           	line	279
  1448                           	
  1449  0E3B                     l5660:	
  1450                           ;main.c: 279: PR2=255;
  1451  0E3B  30FF               	movlw	(0FFh)
  1452  0E3C  1683               	bsf	status, 5	;RP0=1, select bank1
  1453  0E3D  1303               	bcf	status, 6	;RP1=0, select bank1
  1454  0E3E  0092               	movwf	(146)^080h	;volatile
  1455                           	line	281
  1456                           	
  1457  0E3F                     l5662:	
  1458                           ;main.c: 281: ANS2=1;
  1459  0E3F  1683               	bsf	status, 5	;RP0=1, select bank3
  1460  0E40  1703               	bsf	status, 6	;RP1=1, select bank3
  1461  0E41  1508               	bsf	(3138/8)^0180h,(3138)&7
  1462                           	line	282
  1463                           	
  1464  0E42                     l5664:	
  1465                           ;main.c: 282: VCFG0=VCFG1=0;
  1466  0E42  1683               	bsf	status, 5	;RP0=1, select bank1
  1467  0E43  1303               	bcf	status, 6	;RP1=0, select bank1
  1468  0E44  129F               	bcf	(1277/8)^080h,(1277)&7
  1469  0E45  121F               	bcf	(1276/8)^080h,(1276)&7
  1470                           	line	283
  1471                           	
  1472  0E46                     l5666:	
  1473                           ;main.c: 283: ADCS0=ADCS1=1;
  1474  0E46  1283               	bcf	status, 5	;RP0=0, select bank0
  1475  0E47  1303               	bcf	status, 6	;RP1=0, select bank0
  1476  0E48  179F               	bsf	(255/8),(255)&7
  1477  0E49  1B9F               	btfsc	(255/8),(255)&7
  1478  0E4A  2E4C               	goto	u5561
  1479  0E4B  2E50               	goto	u5560
  1480                           	
  1481  0E4C                     u5561:
  1482  0E4C  1283               	bcf	status, 5	;RP0=0, select bank0
  1483  0E4D  1303               	bcf	status, 6	;RP1=0, select bank0
  1484  0E4E  171F               	bsf	(254/8),(254)&7
  1485  0E4F  2E53               	goto	u5574
  1486  0E50                     u5560:
  1487  0E50  1283               	bcf	status, 5	;RP0=0, select bank0
  1488  0E51  1303               	bcf	status, 6	;RP1=0, select bank0
  1489  0E52  131F               	bcf	(254/8),(254)&7
  1490  0E53                     u5574:
  1491                           	line	284
  1492                           	
  1493  0E53                     l5668:	
  1494                           ;main.c: 284: ADFM=1;
  1495  0E53  1683               	bsf	status, 5	;RP0=1, select bank1
  1496  0E54  1303               	bcf	status, 6	;RP1=0, select bank1
  1497  0E55  179F               	bsf	(1279/8)^080h,(1279)&7
  1498                           	line	285
  1499                           	
  1500  0E56                     l5670:	
  1501                           ;main.c: 285: CHS3=0;
  1502  0E56  1283               	bcf	status, 5	;RP0=0, select bank0
  1503  0E57  1303               	bcf	status, 6	;RP1=0, select bank0
  1504  0E58  129F               	bcf	(253/8),(253)&7
  1505                           	line	286
  1506                           	
  1507  0E59                     l5672:	
  1508                           ;main.c: 286: CHS2=0;
  1509  0E59  121F               	bcf	(252/8),(252)&7
  1510                           	line	287
  1511                           	
  1512  0E5A                     l5674:	
  1513                           ;main.c: 287: CHS1=1;
  1514  0E5A  159F               	bsf	(251/8),(251)&7
  1515                           	line	288
  1516                           	
  1517  0E5B                     l5676:	
  1518                           ;main.c: 288: CHS0=0;
  1519  0E5B  111F               	bcf	(250/8),(250)&7
  1520                           	line	289
  1521                           	
  1522  0E5C                     l5678:	
  1523                           ;main.c: 289: ADON=1;
  1524  0E5C  141F               	bsf	(248/8),(248)&7
  1525                           	line	291
  1526                           	
  1527  0E5D                     l5680:	
  1528                           ;main.c: 291: T0CS=0;
  1529  0E5D  1683               	bsf	status, 5	;RP0=1, select bank1
  1530  0E5E  1303               	bcf	status, 6	;RP1=0, select bank1
  1531  0E5F  1281               	bcf	(1037/8)^080h,(1037)&7
  1532                           	line	292
  1533                           	
  1534  0E60                     l5682:	
  1535                           ;main.c: 292: PSA=0;
  1536  0E60  1181               	bcf	(1035/8)^080h,(1035)&7
  1537                           	line	293
  1538                           	
  1539  0E61                     l5684:	
  1540                           ;main.c: 293: T0SE=1;
  1541  0E61  1601               	bsf	(1036/8)^080h,(1036)&7
  1542                           	line	294
  1543                           	
  1544  0E62                     l5686:	
  1545                           ;main.c: 294: PS0=PS2=0;
  1546  0E62  1101               	bcf	(1034/8)^080h,(1034)&7
  1547  0E63  1001               	bcf	(1032/8)^080h,(1032)&7
  1548                           	line	295
  1549                           	
  1550  0E64                     l5688:	
  1551                           ;main.c: 295: PS1=1;
  1552  0E64  1481               	bsf	(1033/8)^080h,(1033)&7
  1553                           	line	296
  1554                           	
  1555  0E65                     l5690:	
  1556                           ;main.c: 296: TMR0=131;
  1557  0E65  3083               	movlw	(083h)
  1558  0E66  1283               	bcf	status, 5	;RP0=0, select bank0
  1559  0E67  1303               	bcf	status, 6	;RP1=0, select bank0
  1560  0E68  0081               	movwf	(1)	;volatile
  1561                           	line	297
  1562                           	
  1563  0E69                     l5692:	
  1564                           ;main.c: 297: T0IE=1;
  1565  0E69  168B               	bsf	(93/8),(93)&7
  1566                           	line	298
  1567                           	
  1568  0E6A                     l5694:	
  1569                           ;main.c: 298: delay_ms(1000);
  1570  0E6A  30E8               	movlw	low(03E8h)
  1571  0E6B  00A0               	movwf	(?_delay_ms)
  1572  0E6C  3003               	movlw	high(03E8h)
  1573  0E6D  00A1               	movwf	((?_delay_ms))+1
  1574  0E6E  120A  158A  227E   	fcall	_delay_ms
              120A  158A         
  1575                           	line	299
  1576                           	
  1577  0E73                     l5696:	
  1578                           ;main.c: 299: BH1750_write();
  1579  0E73  120A  158A  21D3   	fcall	_BH1750_write
              120A  158A         
  1580  0E78  2E79               	goto	l5698
  1581                           	line	301
  1582                           ;main.c: 301: while(1)
  1583                           	
  1584  0E79                     l1017:	
  1585                           	line	303
  1586                           	
  1587  0E79                     l5698:	
  1588                           ;main.c: 302: {
  1589                           ;main.c: 303: delay_ms(200);
  1590  0E79  30C8               	movlw	low(0C8h)
  1591  0E7A  1283               	bcf	status, 5	;RP0=0, select bank0
  1592  0E7B  1303               	bcf	status, 6	;RP1=0, select bank0
  1593  0E7C  00A0               	movwf	(?_delay_ms)
  1594  0E7D  3000               	movlw	high(0C8h)
  1595  0E7E  00A1               	movwf	((?_delay_ms))+1
  1596  0E7F  120A  158A  227E   	fcall	_delay_ms
              120A  158A         
  1597                           	line	304
  1598                           	
  1599  0E84                     l5700:	
  1600                           ;main.c: 304: BH1750_read();
  1601  0E84  120A  158A  257F   	fcall	_BH1750_read
              120A  158A         
  1602                           	line	305
  1603                           	
  1604  0E89                     l5702:	
  1605                           ;main.c: 305: xu_ly_lux();
  1606  0E89  120A  118A  2021   	fcall	_xu_ly_lux
              120A  158A         
  1607                           	line	306
  1608                           	
  1609  0E8E                     l5704:	
  1610                           ;main.c: 306: send_lux();
  1611  0E8E  120A  118A  23AE   	fcall	_send_lux
              120A  158A         
  1612  0E93  2E79               	goto	l5698
  1613                           	line	307
  1614                           	
  1615  0E94                     l1018:	
  1616                           	line	301
  1617  0E94  2E79               	goto	l5698
  1618                           	
  1619  0E95                     l1019:	
  1620                           	line	308
  1621                           	
  1622  0E95                     l1020:	
  1623                           	global	start
  1624  0E95  120A  118A  2812   	ljmp	start
  1625                           	opt stack 0
  1626                           GLOBAL	__end_of_main
  1627  0E98                     	__end_of_main:
  1628 ;; =============== function _main ends ============
  1629                           
  1630                           	signat	_main,88
  1631                           	global	_xu_ly_lux
  1632                           psect	text986,local,class=CODE,delta=2
  1633                           global __ptext986
  1634  0021                     __ptext986:
  1635                           
  1636 ;; *************** function _xu_ly_lux *****************
  1637 ;; Defined at:
  1638 ;;		line 208 in file "C:\Users\Administrator\Desktop\CODE1-ACE5\CODE1-FRAME WORK\CODE MPLAP\main.c"
  1639 ;; Parameters:    Size  Location     Type
  1640 ;;		None
  1641 ;; Auto vars:     Size  Location     Type
  1642 ;;		None
  1643 ;; Return value:  Size  Location     Type
  1644 ;;		None               void
  1645 ;; Registers used:
  1646 ;;		wreg, fsr0l, fsr0h, status,2, status,0, btemp+1, pclath, cstack
  1647 ;; Tracked objects:
  1648 ;;		On entry : 0/0
  1649 ;;		On exit  : 0/0
  1650 ;;		Unchanged: 0/0
  1651 ;; Data sizes:     COMMON   BANK0   BANK1   BANK3   BANK2
  1652 ;;      Params:         0       0       0       0       0
  1653 ;;      Locals:         0       0       2       0       0
  1654 ;;      Temps:          0       0       1       0       0
  1655 ;;      Totals:         0       0       3       0       0
  1656 ;;Total ram usage:        3 bytes
  1657 ;; Hardware stack levels used:    1
  1658 ;; Hardware stack levels required when called:    5
  1659 ;; This function calls:
  1660 ;;		_lcd_gotoxy
  1661 ;;		_lcd_puts
  1662 ;;		_lcd_putc
  1663 ;;		_delay_ms
  1664 ;;		___ftdiv
  1665 ;;		___fttol
  1666 ;;		___awdiv
  1667 ;;		___awmod
  1668 ;;		___awtoft
  1669 ;;		___ftneg
  1670 ;;		___ftadd
  1671 ;;		___ftmul
  1672 ;; This function is called by:
  1673 ;;		_main
  1674 ;; This function uses a non-reentrant model
  1675 ;;
  1676                           psect	text986
  1677                           	file	"C:\Users\Administrator\Desktop\CODE1-ACE5\CODE1-FRAME WORK\CODE MPLAP\main.c"
  1678                           	line	208
  1679                           	global	__size_of_xu_ly_lux
  1680  0243                     	__size_of_xu_ly_lux	equ	__end_of_xu_ly_lux-_xu_ly_lux
  1681                           	
  1682  0021                     _xu_ly_lux:	
  1683                           	opt	stack 2
  1684                           ; Regs used in _xu_ly_lux: [wreg-fsr0h+status,2+status,0+btemp+1+pclath+cstack]
  1685                           	line	209
  1686                           	
  1687  0021                     l5592:	
  1688                           ;main.c: 209: lcd_gotoxy(0, 1);
  1689  0021  1283               	bcf	status, 5	;RP0=0, select bank0
  1690  0022  1303               	bcf	status, 6	;RP1=0, select bank0
  1691  0023  01A5               	clrf	(?_lcd_gotoxy)
  1692  0024  1403               	bsf	status,0
  1693  0025  0DA5               	rlf	(?_lcd_gotoxy),f
  1694  0026  3000               	movlw	(0)
  1695  0027  120A  158A  22A6   	fcall	_lcd_gotoxy
              120A  118A         
  1696                           	line	210
  1697                           	
  1698  002C                     l5594:	
  1699                           ;main.c: 210: lcd_puts("lux: ");
  1700  002C  3001               	movlw	((STR_1-__stringbase))&0ffh
  1701  002D  120A  158A  2259   	fcall	_lcd_puts
              120A  118A         
  1702                           	line	211
  1703                           	
  1704  0032                     l5596:	
  1705                           ;main.c: 211: lcd_gotoxy(6, 1);
  1706  0032  1283               	bcf	status, 5	;RP0=0, select bank0
  1707  0033  1303               	bcf	status, 6	;RP1=0, select bank0
  1708  0034  01A5               	clrf	(?_lcd_gotoxy)
  1709  0035  1403               	bsf	status,0
  1710  0036  0DA5               	rlf	(?_lcd_gotoxy),f
  1711  0037  3006               	movlw	(06h)
  1712  0038  120A  158A  22A6   	fcall	_lcd_gotoxy
              120A  118A         
  1713                           	line	212
  1714                           ;main.c: 212: lcd_putc(nghin);
  1715  003D  1283               	bcf	status, 5	;RP0=0, select bank0
  1716  003E  1303               	bcf	status, 6	;RP1=0, select bank0
  1717  003F  0868               	movf	(_nghin),w
  1718  0040  120A  158A  23C1   	fcall	_lcd_putc
              120A  118A         
  1719                           	line	213
  1720                           ;main.c: 213: lcd_putc(tram);
  1721  0045  1283               	bcf	status, 5	;RP0=0, select bank0
  1722  0046  1303               	bcf	status, 6	;RP1=0, select bank0
  1723  0047  086D               	movf	(_tram),w
  1724  0048  120A  158A  23C1   	fcall	_lcd_putc
              120A  118A         
  1725                           	line	214
  1726                           ;main.c: 214: lcd_putc(chuc);
  1727  004D  1283               	bcf	status, 5	;RP0=0, select bank0
  1728  004E  1303               	bcf	status, 6	;RP1=0, select bank0
  1729  004F  0861               	movf	(_chuc),w
  1730  0050  120A  158A  23C1   	fcall	_lcd_putc
              120A  118A         
  1731                           	line	215
  1732                           ;main.c: 215: lcd_putc(dvi);
  1733  0055  1283               	bcf	status, 5	;RP0=0, select bank0
  1734  0056  1303               	bcf	status, 6	;RP1=0, select bank0
  1735  0057  0865               	movf	(_dvi),w
  1736  0058  120A  158A  23C1   	fcall	_lcd_putc
              120A  118A         
  1737                           	line	216
  1738                           ;main.c: 216: lcd_putc('.');
  1739  005D  302E               	movlw	(02Eh)
  1740  005E  120A  158A  23C1   	fcall	_lcd_putc
              120A  118A         
  1741                           	line	217
  1742                           ;main.c: 217: lcd_putc(chuc1);
  1743  0063  1283               	bcf	status, 5	;RP0=0, select bank0
  1744  0064  1303               	bcf	status, 6	;RP1=0, select bank0
  1745  0065  0862               	movf	(_chuc1),w
  1746  0066  120A  158A  23C1   	fcall	_lcd_putc
              120A  118A         
  1747                           	line	218
  1748                           ;main.c: 218: lcd_putc(dvi1);
  1749  006B  1283               	bcf	status, 5	;RP0=0, select bank0
  1750  006C  1303               	bcf	status, 6	;RP1=0, select bank0
  1751  006D  0866               	movf	(_dvi1),w
  1752  006E  120A  158A  23C1   	fcall	_lcd_putc
              120A  118A         
  1753                           	line	219
  1754                           ;main.c: 219: lcd_putc(dvi1);
  1755  0073  1283               	bcf	status, 5	;RP0=0, select bank0
  1756  0074  1303               	bcf	status, 6	;RP1=0, select bank0
  1757  0075  0866               	movf	(_dvi1),w
  1758  0076  120A  158A  23C1   	fcall	_lcd_putc
              120A  118A         
  1759                           	line	220
  1760                           	
  1761  007B                     l5598:	
  1762                           ;main.c: 220: delay_ms(300);
  1763  007B  302C               	movlw	low(012Ch)
  1764  007C  1283               	bcf	status, 5	;RP0=0, select bank0
  1765  007D  1303               	bcf	status, 6	;RP1=0, select bank0
  1766  007E  00A0               	movwf	(?_delay_ms)
  1767  007F  3001               	movlw	high(012Ch)
  1768  0080  00A1               	movwf	((?_delay_ms))+1
  1769  0081  120A  158A  227E   	fcall	_delay_ms
              120A  118A         
  1770                           	line	221
  1771                           	
  1772  0086                     l5600:	
  1773                           ;main.c: 221: flux1=value1/1;
  1774  0086  1683               	bsf	status, 5	;RP0=1, select bank1
  1775  0087  1303               	bcf	status, 6	;RP1=0, select bank1
  1776  0088  083C               	movf	(_value1)^080h,w
  1777  0089  1283               	bcf	status, 5	;RP0=0, select bank0
  1778  008A  1303               	bcf	status, 6	;RP1=0, select bank0
  1779  008B  00C2               	movwf	0+(?___ftdiv)+03h
  1780  008C  1683               	bsf	status, 5	;RP0=1, select bank1
  1781  008D  1303               	bcf	status, 6	;RP1=0, select bank1
  1782  008E  083D               	movf	(_value1+1)^080h,w
  1783  008F  1283               	bcf	status, 5	;RP0=0, select bank0
  1784  0090  1303               	bcf	status, 6	;RP1=0, select bank0
  1785  0091  00C3               	movwf	1+(?___ftdiv)+03h
  1786  0092  1683               	bsf	status, 5	;RP0=1, select bank1
  1787  0093  1303               	bcf	status, 6	;RP1=0, select bank1
  1788  0094  083E               	movf	(_value1+2)^080h,w
  1789  0095  1283               	bcf	status, 5	;RP0=0, select bank0
  1790  0096  1303               	bcf	status, 6	;RP1=0, select bank0
  1791  0097  00C4               	movwf	2+(?___ftdiv)+03h
  1792  0098  3000               	movlw	0x0
  1793  0099  00BF               	movwf	(?___ftdiv)
  1794  009A  3080               	movlw	0x80
  1795  009B  00C0               	movwf	(?___ftdiv+1)
  1796  009C  303F               	movlw	0x3f
  1797  009D  00C1               	movwf	(?___ftdiv+2)
  1798  009E  120A  118A  26DB   	fcall	___ftdiv
              120A  118A         
  1799  00A3  1283               	bcf	status, 5	;RP0=0, select bank0
  1800  00A4  1303               	bcf	status, 6	;RP1=0, select bank0
  1801  00A5  083F               	movf	(0+(?___ftdiv)),w
  1802  00A6  00AB               	movwf	(?___fttol)
  1803  00A7  0840               	movf	(1+(?___ftdiv)),w
  1804  00A8  00AC               	movwf	(?___fttol+1)
  1805  00A9  0841               	movf	(2+(?___ftdiv)),w
  1806  00AA  00AD               	movwf	(?___fttol+2)
  1807  00AB  120A  158A  2698   	fcall	___fttol
              120A  118A         
  1808  00B0  1283               	bcf	status, 5	;RP0=0, select bank0
  1809  00B1  1303               	bcf	status, 6	;RP1=0, select bank0
  1810  00B2  082C               	movf	1+(((0+(?___fttol)))),w
  1811  00B3  01DD               	clrf	(_flux1+1)
  1812  00B4  07DD               	addwf	(_flux1+1)
  1813  00B5  082B               	movf	0+(((0+(?___fttol)))),w
  1814  00B6  01DC               	clrf	(_flux1)
  1815  00B7  07DC               	addwf	(_flux1)
  1816                           
  1817                           	line	222
  1818                           	
  1819  00B8                     l5602:	
  1820                           ;main.c: 222: nghin=(flux1/1000)+48;
  1821  00B8  30E8               	movlw	low(03E8h)
  1822  00B9  00A7               	movwf	(?___awdiv)
  1823  00BA  3003               	movlw	high(03E8h)
  1824  00BB  00A8               	movwf	((?___awdiv))+1
  1825  00BC  085D               	movf	(_flux1+1),w
  1826  00BD  01AA               	clrf	1+(?___awdiv)+02h
  1827  00BE  07AA               	addwf	1+(?___awdiv)+02h
  1828  00BF  085C               	movf	(_flux1),w
  1829  00C0  01A9               	clrf	0+(?___awdiv)+02h
  1830  00C1  07A9               	addwf	0+(?___awdiv)+02h
  1831                           
  1832  00C2  120A  158A  2487   	fcall	___awdiv
              120A  118A         
  1833  00C7  1283               	bcf	status, 5	;RP0=0, select bank0
  1834  00C8  1303               	bcf	status, 6	;RP1=0, select bank0
  1835  00C9  0827               	movf	(0+(?___awdiv)),w
  1836  00CA  3E30               	addlw	030h
  1837  00CB  1683               	bsf	status, 5	;RP0=1, select bank1
  1838  00CC  1303               	bcf	status, 6	;RP1=0, select bank1
  1839  00CD  00E7               	movwf	(??_xu_ly_lux+0)^080h+0
  1840  00CE  0867               	movf	(??_xu_ly_lux+0)^080h+0,w
  1841  00CF  1283               	bcf	status, 5	;RP0=0, select bank0
  1842  00D0  1303               	bcf	status, 6	;RP1=0, select bank0
  1843  00D1  00E8               	movwf	(_nghin)
  1844                           	line	223
  1845                           	
  1846  00D2                     l5604:	
  1847                           ;main.c: 223: tram=((flux1%1000)/100)+48;
  1848  00D2  3064               	movlw	low(064h)
  1849  00D3  00A7               	movwf	(?___awdiv)
  1850  00D4  3000               	movlw	high(064h)
  1851  00D5  00A8               	movwf	((?___awdiv))+1
  1852  00D6  085D               	movf	(_flux1+1),w
  1853  00D7  01A3               	clrf	1+(?___awmod)+02h
  1854  00D8  07A3               	addwf	1+(?___awmod)+02h
  1855  00D9  085C               	movf	(_flux1),w
  1856  00DA  01A2               	clrf	0+(?___awmod)+02h
  1857  00DB  07A2               	addwf	0+(?___awmod)+02h
  1858                           
  1859  00DC  30E8               	movlw	low(03E8h)
  1860  00DD  00A0               	movwf	(?___awmod)
  1861  00DE  3003               	movlw	high(03E8h)
  1862  00DF  00A1               	movwf	((?___awmod))+1
  1863  00E0  120A  158A  241B   	fcall	___awmod
              120A  118A         
  1864  00E5  1283               	bcf	status, 5	;RP0=0, select bank0
  1865  00E6  1303               	bcf	status, 6	;RP1=0, select bank0
  1866  00E7  0821               	movf	(1+(?___awmod)),w
  1867  00E8  01AA               	clrf	1+(?___awdiv)+02h
  1868  00E9  07AA               	addwf	1+(?___awdiv)+02h
  1869  00EA  0820               	movf	(0+(?___awmod)),w
  1870  00EB  01A9               	clrf	0+(?___awdiv)+02h
  1871  00EC  07A9               	addwf	0+(?___awdiv)+02h
  1872                           
  1873  00ED  120A  158A  2487   	fcall	___awdiv
              120A  118A         
  1874  00F2  1283               	bcf	status, 5	;RP0=0, select bank0
  1875  00F3  1303               	bcf	status, 6	;RP1=0, select bank0
  1876  00F4  0827               	movf	(0+(?___awdiv)),w
  1877  00F5  3E30               	addlw	030h
  1878  00F6  1683               	bsf	status, 5	;RP0=1, select bank1
  1879  00F7  1303               	bcf	status, 6	;RP1=0, select bank1
  1880  00F8  00E7               	movwf	(??_xu_ly_lux+0)^080h+0
  1881  00F9  0867               	movf	(??_xu_ly_lux+0)^080h+0,w
  1882  00FA  1283               	bcf	status, 5	;RP0=0, select bank0
  1883  00FB  1303               	bcf	status, 6	;RP1=0, select bank0
  1884  00FC  00ED               	movwf	(_tram)
  1885                           	line	224
  1886                           	
  1887  00FD                     l5606:	
  1888                           ;main.c: 224: chuc=(((flux1%1000)%100)/10)+48;
  1889  00FD  300A               	movlw	low(0Ah)
  1890  00FE  00A7               	movwf	(?___awdiv)
  1891  00FF  3000               	movlw	high(0Ah)
  1892  0100  00A8               	movwf	((?___awdiv))+1
  1893  0101  085D               	movf	(_flux1+1),w
  1894  0102  01A3               	clrf	1+(?___awmod)+02h
  1895  0103  07A3               	addwf	1+(?___awmod)+02h
  1896  0104  085C               	movf	(_flux1),w
  1897  0105  01A2               	clrf	0+(?___awmod)+02h
  1898  0106  07A2               	addwf	0+(?___awmod)+02h
  1899                           
  1900  0107  30E8               	movlw	low(03E8h)
  1901  0108  00A0               	movwf	(?___awmod)
  1902  0109  3003               	movlw	high(03E8h)
  1903  010A  00A1               	movwf	((?___awmod))+1
  1904  010B  120A  158A  241B   	fcall	___awmod
              120A  118A         
  1905  0110  1283               	bcf	status, 5	;RP0=0, select bank0
  1906  0111  1303               	bcf	status, 6	;RP1=0, select bank0
  1907  0112  0821               	movf	(1+(?___awmod)),w
  1908  0113  01A3               	clrf	1+(?___awmod)+02h
  1909  0114  07A3               	addwf	1+(?___awmod)+02h
  1910  0115  0820               	movf	(0+(?___awmod)),w
  1911  0116  01A2               	clrf	0+(?___awmod)+02h
  1912  0117  07A2               	addwf	0+(?___awmod)+02h
  1913                           
  1914  0118  3064               	movlw	low(064h)
  1915  0119  00A0               	movwf	(?___awmod)
  1916  011A  3000               	movlw	high(064h)
  1917  011B  00A1               	movwf	((?___awmod))+1
  1918  011C  120A  158A  241B   	fcall	___awmod
              120A  118A         
  1919  0121  1283               	bcf	status, 5	;RP0=0, select bank0
  1920  0122  1303               	bcf	status, 6	;RP1=0, select bank0
  1921  0123  0821               	movf	(1+(?___awmod)),w
  1922  0124  01AA               	clrf	1+(?___awdiv)+02h
  1923  0125  07AA               	addwf	1+(?___awdiv)+02h
  1924  0126  0820               	movf	(0+(?___awmod)),w
  1925  0127  01A9               	clrf	0+(?___awdiv)+02h
  1926  0128  07A9               	addwf	0+(?___awdiv)+02h
  1927                           
  1928  0129  120A  158A  2487   	fcall	___awdiv
              120A  118A         
  1929  012E  1283               	bcf	status, 5	;RP0=0, select bank0
  1930  012F  1303               	bcf	status, 6	;RP1=0, select bank0
  1931  0130  0827               	movf	(0+(?___awdiv)),w
  1932  0131  3E30               	addlw	030h
  1933  0132  1683               	bsf	status, 5	;RP0=1, select bank1
  1934  0133  1303               	bcf	status, 6	;RP1=0, select bank1
  1935  0134  00E7               	movwf	(??_xu_ly_lux+0)^080h+0
  1936  0135  0867               	movf	(??_xu_ly_lux+0)^080h+0,w
  1937  0136  1283               	bcf	status, 5	;RP0=0, select bank0
  1938  0137  1303               	bcf	status, 6	;RP1=0, select bank0
  1939  0138  00E1               	movwf	(_chuc)
  1940                           	line	225
  1941                           	
  1942  0139                     l5608:	
  1943                           ;main.c: 225: dvi=(((flux1%1000)%100)%10)+48;
  1944  0139  085D               	movf	(_flux1+1),w
  1945  013A  01A3               	clrf	1+(?___awmod)+02h
  1946  013B  07A3               	addwf	1+(?___awmod)+02h
  1947  013C  085C               	movf	(_flux1),w
  1948  013D  01A2               	clrf	0+(?___awmod)+02h
  1949  013E  07A2               	addwf	0+(?___awmod)+02h
  1950                           
  1951  013F  30E8               	movlw	low(03E8h)
  1952  0140  00A0               	movwf	(?___awmod)
  1953  0141  3003               	movlw	high(03E8h)
  1954  0142  00A1               	movwf	((?___awmod))+1
  1955  0143  120A  158A  241B   	fcall	___awmod
              120A  118A         
  1956  0148  1283               	bcf	status, 5	;RP0=0, select bank0
  1957  0149  1303               	bcf	status, 6	;RP1=0, select bank0
  1958  014A  0821               	movf	(1+(?___awmod)),w
  1959  014B  01A3               	clrf	1+(?___awmod)+02h
  1960  014C  07A3               	addwf	1+(?___awmod)+02h
  1961  014D  0820               	movf	(0+(?___awmod)),w
  1962  014E  01A2               	clrf	0+(?___awmod)+02h
  1963  014F  07A2               	addwf	0+(?___awmod)+02h
  1964                           
  1965  0150  3064               	movlw	low(064h)
  1966  0151  00A0               	movwf	(?___awmod)
  1967  0152  3000               	movlw	high(064h)
  1968  0153  00A1               	movwf	((?___awmod))+1
  1969  0154  120A  158A  241B   	fcall	___awmod
              120A  118A         
  1970  0159  1283               	bcf	status, 5	;RP0=0, select bank0
  1971  015A  1303               	bcf	status, 6	;RP1=0, select bank0
  1972  015B  0821               	movf	(1+(?___awmod)),w
  1973  015C  1683               	bsf	status, 5	;RP0=1, select bank1
  1974  015D  1303               	bcf	status, 6	;RP1=0, select bank1
  1975  015E  01E9               	clrf	(_xu_ly_lux$1403+1)^080h
  1976  015F  07E9               	addwf	(_xu_ly_lux$1403+1)^080h
  1977  0160  1283               	bcf	status, 5	;RP0=0, select bank0
  1978  0161  1303               	bcf	status, 6	;RP1=0, select bank0
  1979  0162  0820               	movf	(0+(?___awmod)),w
  1980  0163  1683               	bsf	status, 5	;RP0=1, select bank1
  1981  0164  1303               	bcf	status, 6	;RP1=0, select bank1
  1982  0165  01E8               	clrf	(_xu_ly_lux$1403)^080h
  1983  0166  07E8               	addwf	(_xu_ly_lux$1403)^080h
  1984                           
  1985                           	
  1986  0167                     l5610:	
  1987                           ;main.c: 225: dvi=(((flux1%1000)%100)%10)+48;
  1988  0167  300A               	movlw	low(0Ah)
  1989  0168  1283               	bcf	status, 5	;RP0=0, select bank0
  1990  0169  1303               	bcf	status, 6	;RP1=0, select bank0
  1991  016A  00A0               	movwf	(?___awmod)
  1992  016B  3000               	movlw	high(0Ah)
  1993  016C  00A1               	movwf	((?___awmod))+1
  1994  016D  1683               	bsf	status, 5	;RP0=1, select bank1
  1995  016E  1303               	bcf	status, 6	;RP1=0, select bank1
  1996  016F  0869               	movf	(_xu_ly_lux$1403+1)^080h,w
  1997  0170  1283               	bcf	status, 5	;RP0=0, select bank0
  1998  0171  1303               	bcf	status, 6	;RP1=0, select bank0
  1999  0172  01A3               	clrf	1+(?___awmod)+02h
  2000  0173  07A3               	addwf	1+(?___awmod)+02h
  2001  0174  1683               	bsf	status, 5	;RP0=1, select bank1
  2002  0175  1303               	bcf	status, 6	;RP1=0, select bank1
  2003  0176  0868               	movf	(_xu_ly_lux$1403)^080h,w
  2004  0177  1283               	bcf	status, 5	;RP0=0, select bank0
  2005  0178  1303               	bcf	status, 6	;RP1=0, select bank0
  2006  0179  01A2               	clrf	0+(?___awmod)+02h
  2007  017A  07A2               	addwf	0+(?___awmod)+02h
  2008                           
  2009  017B  120A  158A  241B   	fcall	___awmod
              120A  118A         
  2010  0180  1283               	bcf	status, 5	;RP0=0, select bank0
  2011  0181  1303               	bcf	status, 6	;RP1=0, select bank0
  2012  0182  0820               	movf	(0+(?___awmod)),w
  2013  0183  3E30               	addlw	030h
  2014  0184  1683               	bsf	status, 5	;RP0=1, select bank1
  2015  0185  1303               	bcf	status, 6	;RP1=0, select bank1
  2016  0186  00E7               	movwf	(??_xu_ly_lux+0)^080h+0
  2017  0187  0867               	movf	(??_xu_ly_lux+0)^080h+0,w
  2018  0188  1283               	bcf	status, 5	;RP0=0, select bank0
  2019  0189  1303               	bcf	status, 6	;RP1=0, select bank0
  2020  018A  00E5               	movwf	(_dvi)
  2021                           	line	226
  2022                           	
  2023  018B                     l5612:	
  2024                           ;main.c: 226: for(m=0;m<2;m++)
  2025  018B  3000               	movlw	low(0)
  2026  018C  1683               	bsf	status, 5	;RP0=1, select bank1
  2027  018D  1303               	bcf	status, 6	;RP1=0, select bank1
  2028  018E  00D5               	movwf	(_m)^080h
  2029  018F  3000               	movlw	high(0)
  2030  0190  00D6               	movwf	((_m)^080h)+1
  2031                           	
  2032  0191                     l5614:	
  2033  0191  0856               	movf	(_m+1)^080h,w
  2034  0192  3A80               	xorlw	80h
  2035  0193  00FF               	movwf	btemp+1
  2036  0194  3080               	movlw	(high(02h))^80h
  2037  0195  027F               	subwf	btemp+1,w
  2038  0196  1D03               	skipz
  2039  0197  299A               	goto	u5545
  2040  0198  3002               	movlw	low(02h)
  2041  0199  0255               	subwf	(_m)^080h,w
  2042  019A                     u5545:
  2043                           
  2044  019A  1C03               	skipc
  2045  019B  299D               	goto	u5541
  2046  019C  299E               	goto	u5540
  2047  019D                     u5541:
  2048  019D  29A0               	goto	l5618
  2049  019E                     u5540:
  2050  019E  2A63               	goto	l1008
  2051                           	
  2052  019F                     l5616:	
  2053  019F  2A63               	goto	l1008
  2054                           	line	227
  2055                           	
  2056  01A0                     l1006:	
  2057                           	line	228
  2058                           	
  2059  01A0                     l5618:	
  2060                           ;main.c: 227: {
  2061                           ;main.c: 228: flux2=(value1-flux1)*10;
  2062  01A0  1283               	bcf	status, 5	;RP0=0, select bank0
  2063  01A1  1303               	bcf	status, 6	;RP1=0, select bank0
  2064  01A2  085D               	movf	(_flux1+1),w
  2065  01A3  01BA               	clrf	(?___awtoft+1)
  2066  01A4  07BA               	addwf	(?___awtoft+1)
  2067  01A5  085C               	movf	(_flux1),w
  2068  01A6  01B9               	clrf	(?___awtoft)
  2069  01A7  07B9               	addwf	(?___awtoft)
  2070                           
  2071  01A8  120A  158A  22D4   	fcall	___awtoft
              120A  118A         
  2072  01AD  1283               	bcf	status, 5	;RP0=0, select bank0
  2073  01AE  1303               	bcf	status, 6	;RP1=0, select bank0
  2074  01AF  0839               	movf	(0+(?___awtoft)),w
  2075  01B0  00A8               	movwf	(?___ftneg)
  2076  01B1  083A               	movf	(1+(?___awtoft)),w
  2077  01B2  00A9               	movwf	(?___ftneg+1)
  2078  01B3  083B               	movf	(2+(?___awtoft)),w
  2079  01B4  00AA               	movwf	(?___ftneg+2)
  2080  01B5  120A  158A  21C5   	fcall	___ftneg
              120A  118A         
  2081  01BA  1283               	bcf	status, 5	;RP0=0, select bank0
  2082  01BB  1303               	bcf	status, 6	;RP1=0, select bank0
  2083  01BC  0828               	movf	(0+(?___ftneg)),w
  2084  01BD  00C2               	movwf	0+(?___ftadd)+03h
  2085  01BE  0829               	movf	(1+(?___ftneg)),w
  2086  01BF  00C3               	movwf	1+(?___ftadd)+03h
  2087  01C0  082A               	movf	(2+(?___ftneg)),w
  2088  01C1  00C4               	movwf	2+(?___ftadd)+03h
  2089  01C2  1683               	bsf	status, 5	;RP0=1, select bank1
  2090  01C3  1303               	bcf	status, 6	;RP1=0, select bank1
  2091  01C4  083C               	movf	(_value1)^080h,w
  2092  01C5  1283               	bcf	status, 5	;RP0=0, select bank0
  2093  01C6  1303               	bcf	status, 6	;RP1=0, select bank0
  2094  01C7  00BF               	movwf	(?___ftadd)
  2095  01C8  1683               	bsf	status, 5	;RP0=1, select bank1
  2096  01C9  1303               	bcf	status, 6	;RP1=0, select bank1
  2097  01CA  083D               	movf	(_value1+1)^080h,w
  2098  01CB  1283               	bcf	status, 5	;RP0=0, select bank0
  2099  01CC  1303               	bcf	status, 6	;RP1=0, select bank0
  2100  01CD  00C0               	movwf	(?___ftadd+1)
  2101  01CE  1683               	bsf	status, 5	;RP0=1, select bank1
  2102  01CF  1303               	bcf	status, 6	;RP1=0, select bank1
  2103  01D0  083E               	movf	(_value1+2)^080h,w
  2104  01D1  1283               	bcf	status, 5	;RP0=0, select bank0
  2105  01D2  1303               	bcf	status, 6	;RP1=0, select bank0
  2106  01D3  00C1               	movwf	(?___ftadd+2)
  2107  01D4  120A  118A  2264   	fcall	___ftadd
              120A  118A         
  2108  01D9  1283               	bcf	status, 5	;RP0=0, select bank0
  2109  01DA  1303               	bcf	status, 6	;RP1=0, select bank0
  2110  01DB  083F               	movf	(0+(?___ftadd)),w
  2111  01DC  00CF               	movwf	0+(?___ftmul)+03h
  2112  01DD  0840               	movf	(1+(?___ftadd)),w
  2113  01DE  00D0               	movwf	1+(?___ftmul)+03h
  2114  01DF  0841               	movf	(2+(?___ftadd)),w
  2115  01E0  00D1               	movwf	2+(?___ftmul)+03h
  2116  01E1  3000               	movlw	0x0
  2117  01E2  00CC               	movwf	(?___ftmul)
  2118  01E3  3020               	movlw	0x20
  2119  01E4  00CD               	movwf	(?___ftmul+1)
  2120  01E5  3041               	movlw	0x41
  2121  01E6  00CE               	movwf	(?___ftmul+2)
  2122  01E7  120A  118A  25ED   	fcall	___ftmul
              120A  118A         
  2123  01EC  1283               	bcf	status, 5	;RP0=0, select bank0
  2124  01ED  1303               	bcf	status, 6	;RP1=0, select bank0
  2125  01EE  084C               	movf	(0+(?___ftmul)),w
  2126  01EF  00AB               	movwf	(?___fttol)
  2127  01F0  084D               	movf	(1+(?___ftmul)),w
  2128  01F1  00AC               	movwf	(?___fttol+1)
  2129  01F2  084E               	movf	(2+(?___ftmul)),w
  2130  01F3  00AD               	movwf	(?___fttol+2)
  2131  01F4  120A  158A  2698   	fcall	___fttol
              120A  118A         
  2132  01F9  1283               	bcf	status, 5	;RP0=0, select bank0
  2133  01FA  1303               	bcf	status, 6	;RP1=0, select bank0
  2134  01FB  082C               	movf	1+(((0+(?___fttol)))),w
  2135  01FC  1683               	bsf	status, 5	;RP0=1, select bank1
  2136  01FD  1303               	bcf	status, 6	;RP1=0, select bank1
  2137  01FE  01C0               	clrf	(_flux2+1)^080h
  2138  01FF  07C0               	addwf	(_flux2+1)^080h
  2139  0200  1283               	bcf	status, 5	;RP0=0, select bank0
  2140  0201  1303               	bcf	status, 6	;RP1=0, select bank0
  2141  0202  082B               	movf	0+(((0+(?___fttol)))),w
  2142  0203  1683               	bsf	status, 5	;RP0=1, select bank1
  2143  0204  1303               	bcf	status, 6	;RP1=0, select bank1
  2144  0205  01BF               	clrf	(_flux2)^080h
  2145  0206  07BF               	addwf	(_flux2)^080h
  2146                           
  2147                           	line	229
  2148                           ;main.c: 229: chuc1=(flux2%10)+48;
  2149  0207  300A               	movlw	low(0Ah)
  2150  0208  1283               	bcf	status, 5	;RP0=0, select bank0
  2151  0209  1303               	bcf	status, 6	;RP1=0, select bank0
  2152  020A  00A0               	movwf	(?___awmod)
  2153  020B  3000               	movlw	high(0Ah)
  2154  020C  00A1               	movwf	((?___awmod))+1
  2155  020D  1683               	bsf	status, 5	;RP0=1, select bank1
  2156  020E  1303               	bcf	status, 6	;RP1=0, select bank1
  2157  020F  0840               	movf	(_flux2+1)^080h,w
  2158  0210  1283               	bcf	status, 5	;RP0=0, select bank0
  2159  0211  1303               	bcf	status, 6	;RP1=0, select bank0
  2160  0212  01A3               	clrf	1+(?___awmod)+02h
  2161  0213  07A3               	addwf	1+(?___awmod)+02h
  2162  0214  1683               	bsf	status, 5	;RP0=1, select bank1
  2163  0215  1303               	bcf	status, 6	;RP1=0, select bank1
  2164  0216  083F               	movf	(_flux2)^080h,w
  2165  0217  1283               	bcf	status, 5	;RP0=0, select bank0
  2166  0218  1303               	bcf	status, 6	;RP1=0, select bank0
  2167  0219  01A2               	clrf	0+(?___awmod)+02h
  2168  021A  07A2               	addwf	0+(?___awmod)+02h
  2169                           
  2170  021B  120A  158A  241B   	fcall	___awmod
              120A  118A         
  2171  0220  1283               	bcf	status, 5	;RP0=0, select bank0
  2172  0221  1303               	bcf	status, 6	;RP1=0, select bank0
  2173  0222  0820               	movf	(0+(?___awmod)),w
  2174  0223  3E30               	addlw	030h
  2175  0224  1683               	bsf	status, 5	;RP0=1, select bank1
  2176  0225  1303               	bcf	status, 6	;RP1=0, select bank1
  2177  0226  00E7               	movwf	(??_xu_ly_lux+0)^080h+0
  2178  0227  0867               	movf	(??_xu_ly_lux+0)^080h+0,w
  2179  0228  1283               	bcf	status, 5	;RP0=0, select bank0
  2180  0229  1303               	bcf	status, 6	;RP1=0, select bank0
  2181  022A  00E2               	movwf	(_chuc1)
  2182                           	line	230
  2183                           ;main.c: 230: dvi1=(flux2/10)+48;
  2184  022B  300A               	movlw	low(0Ah)
  2185  022C  00A7               	movwf	(?___awdiv)
  2186  022D  3000               	movlw	high(0Ah)
  2187  022E  00A8               	movwf	((?___awdiv))+1
  2188  022F  1683               	bsf	status, 5	;RP0=1, select bank1
  2189  0230  1303               	bcf	status, 6	;RP1=0, select bank1
  2190  0231  0840               	movf	(_flux2+1)^080h,w
  2191  0232  1283               	bcf	status, 5	;RP0=0, select bank0
  2192  0233  1303               	bcf	status, 6	;RP1=0, select bank0
  2193  0234  01AA               	clrf	1+(?___awdiv)+02h
  2194  0235  07AA               	addwf	1+(?___awdiv)+02h
  2195  0236  1683               	bsf	status, 5	;RP0=1, select bank1
  2196  0237  1303               	bcf	status, 6	;RP1=0, select bank1
  2197  0238  083F               	movf	(_flux2)^080h,w
  2198  0239  1283               	bcf	status, 5	;RP0=0, select bank0
  2199  023A  1303               	bcf	status, 6	;RP1=0, select bank0
  2200  023B  01A9               	clrf	0+(?___awdiv)+02h
  2201  023C  07A9               	addwf	0+(?___awdiv)+02h
  2202                           
  2203  023D  120A  158A  2487   	fcall	___awdiv
              120A  118A         
  2204  0242  1283               	bcf	status, 5	;RP0=0, select bank0
  2205  0243  1303               	bcf	status, 6	;RP1=0, select bank0
  2206  0244  0827               	movf	(0+(?___awdiv)),w
  2207  0245  3E30               	addlw	030h
  2208  0246  1683               	bsf	status, 5	;RP0=1, select bank1
  2209  0247  1303               	bcf	status, 6	;RP1=0, select bank1
  2210  0248  00E7               	movwf	(??_xu_ly_lux+0)^080h+0
  2211  0249  0867               	movf	(??_xu_ly_lux+0)^080h+0,w
  2212  024A  1283               	bcf	status, 5	;RP0=0, select bank0
  2213  024B  1303               	bcf	status, 6	;RP1=0, select bank0
  2214  024C  00E6               	movwf	(_dvi1)
  2215                           	line	226
  2216                           	
  2217  024D                     l5620:	
  2218  024D  3001               	movlw	low(01h)
  2219  024E  1683               	bsf	status, 5	;RP0=1, select bank1
  2220  024F  1303               	bcf	status, 6	;RP1=0, select bank1
  2221  0250  07D5               	addwf	(_m)^080h,f
  2222  0251  1803               	skipnc
  2223  0252  0AD6               	incf	(_m+1)^080h,f
  2224  0253  3000               	movlw	high(01h)
  2225  0254  07D6               	addwf	(_m+1)^080h,f
  2226                           	
  2227  0255                     l5622:	
  2228  0255  0856               	movf	(_m+1)^080h,w
  2229  0256  3A80               	xorlw	80h
  2230  0257  00FF               	movwf	btemp+1
  2231  0258  3080               	movlw	(high(02h))^80h
  2232  0259  027F               	subwf	btemp+1,w
  2233  025A  1D03               	skipz
  2234  025B  2A5E               	goto	u5555
  2235  025C  3002               	movlw	low(02h)
  2236  025D  0255               	subwf	(_m)^080h,w
  2237  025E                     u5555:
  2238                           
  2239  025E  1C03               	skipc
  2240  025F  2A61               	goto	u5551
  2241  0260  2A62               	goto	u5550
  2242  0261                     u5551:
  2243  0261  29A0               	goto	l5618
  2244  0262                     u5550:
  2245  0262  2A63               	goto	l1008
  2246                           	
  2247  0263                     l1007:	
  2248                           	line	232
  2249                           	
  2250  0263                     l1008:	
  2251  0263  0008               	return
  2252                           	opt stack 0
  2253                           GLOBAL	__end_of_xu_ly_lux
  2254  0264                     	__end_of_xu_ly_lux:
  2255 ;; =============== function _xu_ly_lux ends ============
  2256                           
  2257                           	signat	_xu_ly_lux,88
  2258                           	global	_lcd_puts
  2259                           psect	text987,local,class=CODE,delta=2
  2260                           global __ptext987
  2261  0A59                     __ptext987:
  2262                           
  2263 ;; *************** function _lcd_puts *****************
  2264 ;; Defined at:
  2265 ;;		line 175 in file "C:\Users\Administrator\Desktop\CODE1-ACE5\CODE1-FRAME WORK\CODE MPLAP\lcd.c"
  2266 ;; Parameters:    Size  Location     Type
  2267 ;;  s               1    wreg     PTR const unsigned char 
  2268 ;;		 -> STR_1(6), 
  2269 ;; Auto vars:     Size  Location     Type
  2270 ;;  s               1   12[BANK0 ] PTR const unsigned char 
  2271 ;;		 -> STR_1(6), 
  2272 ;; Return value:  Size  Location     Type
  2273 ;;		None               void
  2274 ;; Registers used:
  2275 ;;		wreg, fsr0l, fsr0h, status,2, status,0, pclath, cstack
  2276 ;; Tracked objects:
  2277 ;;		On entry : 0/0
  2278 ;;		On exit  : 0/0
  2279 ;;		Unchanged: 0/0
  2280 ;; Data sizes:     COMMON   BANK0   BANK1   BANK3   BANK2
  2281 ;;      Params:         0       0       0       0       0
  2282 ;;      Locals:         0       1       0       0       0
  2283 ;;      Temps:          0       1       0       0       0
  2284 ;;      Totals:         0       2       0       0       0
  2285 ;;Total ram usage:        2 bytes
  2286 ;; Hardware stack levels used:    1
  2287 ;; Hardware stack levels required when called:    4
  2288 ;; This function calls:
  2289 ;;		_lcd_putc
  2290 ;; This function is called by:
  2291 ;;		_xu_ly_lux
  2292 ;; This function uses a non-reentrant model
  2293 ;;
  2294                           psect	text987
  2295                           	file	"C:\Users\Administrator\Desktop\CODE1-ACE5\CODE1-FRAME WORK\CODE MPLAP\lcd.c"
  2296                           	line	175
  2297                           	global	__size_of_lcd_puts
  2298  0025                     	__size_of_lcd_puts	equ	__end_of_lcd_puts-_lcd_puts
  2299                           	
  2300  0A59                     _lcd_puts:	
  2301                           	opt	stack 2
  2302                           ; Regs used in _lcd_puts: [wreg-fsr0h+status,2+status,0+pclath+cstack]
  2303                           ;lcd_puts@s stored from wreg
  2304  0A59  1283               	bcf	status, 5	;RP0=0, select bank0
  2305  0A5A  1303               	bcf	status, 6	;RP1=0, select bank0
  2306  0A5B  00AC               	movwf	(lcd_puts@s)
  2307                           	line	176
  2308                           	
  2309  0A5C                     l5584:	
  2310                           ;lcd.c: 176: while(*s){
  2311  0A5C  2A70               	goto	l5590
  2312                           	
  2313  0A5D                     l1924:	
  2314                           	line	177
  2315                           	
  2316  0A5D                     l5586:	
  2317                           ;lcd.c: 177: lcd_putc(*s++);
  2318  0A5D  082C               	movf	(lcd_puts@s),w
  2319  0A5E  0084               	movwf	fsr0
  2320  0A5F  120A  118A  2015   	fcall	stringdir
              120A  158A         
  2321  0A64  120A  158A  23C1   	fcall	_lcd_putc
              120A  158A         
  2322                           	
  2323  0A69                     l5588:	
  2324  0A69  3001               	movlw	(01h)
  2325  0A6A  1283               	bcf	status, 5	;RP0=0, select bank0
  2326  0A6B  1303               	bcf	status, 6	;RP1=0, select bank0
  2327  0A6C  00AB               	movwf	(??_lcd_puts+0)+0
  2328  0A6D  082B               	movf	(??_lcd_puts+0)+0,w
  2329  0A6E  07AC               	addwf	(lcd_puts@s),f
  2330  0A6F  2A70               	goto	l5590
  2331                           	line	178
  2332                           	
  2333  0A70                     l1923:	
  2334                           	line	176
  2335                           	
  2336  0A70                     l5590:	
  2337  0A70  082C               	movf	(lcd_puts@s),w
  2338  0A71  0084               	movwf	fsr0
  2339  0A72  120A  118A  2015   	fcall	stringdir
              120A  158A         
  2340  0A77  3800               	iorlw	0
  2341  0A78  1D03               	skipz
  2342  0A79  2A7B               	goto	u5531
  2343  0A7A  2A7C               	goto	u5530
  2344  0A7B                     u5531:
  2345  0A7B  2A5D               	goto	l5586
  2346  0A7C                     u5530:
  2347  0A7C  2A7D               	goto	l1926
  2348                           	
  2349  0A7D                     l1925:	
  2350                           	line	179
  2351                           	
  2352  0A7D                     l1926:	
  2353  0A7D  0008               	return
  2354                           	opt stack 0
  2355                           GLOBAL	__end_of_lcd_puts
  2356  0A7E                     	__end_of_lcd_puts:
  2357 ;; =============== function _lcd_puts ends ============
  2358                           
  2359                           	signat	_lcd_puts,4216
  2360                           	global	_lcd_putc
  2361                           psect	text988,local,class=CODE,delta=2
  2362                           global __ptext988
  2363  0BC1                     __ptext988:
  2364                           
  2365 ;; *************** function _lcd_putc *****************
  2366 ;; Defined at:
  2367 ;;		line 143 in file "C:\Users\Administrator\Desktop\CODE1-ACE5\CODE1-FRAME WORK\CODE MPLAP\lcd.c"
  2368 ;; Parameters:    Size  Location     Type
  2369 ;;  c               1    wreg     unsigned char 
  2370 ;; Auto vars:     Size  Location     Type
  2371 ;;  c               1   10[BANK0 ] unsigned char 
  2372 ;; Return value:  Size  Location     Type
  2373 ;;		None               void
  2374 ;; Registers used:
  2375 ;;		wreg, fsr0l, fsr0h, status,2, status,0, pclath, cstack
  2376 ;; Tracked objects:
  2377 ;;		On entry : 0/0
  2378 ;;		On exit  : 0/0
  2379 ;;		Unchanged: 0/0
  2380 ;; Data sizes:     COMMON   BANK0   BANK1   BANK3   BANK2
  2381 ;;      Params:         0       0       0       0       0
  2382 ;;      Locals:         0       1       0       0       0
  2383 ;;      Temps:          0       1       0       0       0
  2384 ;;      Totals:         0       2       0       0       0
  2385 ;;Total ram usage:        2 bytes
  2386 ;; Hardware stack levels used:    1
  2387 ;; Hardware stack levels required when called:    3
  2388 ;; This function calls:
  2389 ;;		_lcd_put_byte
  2390 ;;		_lcd_busy
  2391 ;;		_lcd_gotoxy
  2392 ;;		_isprint
  2393 ;; This function is called by:
  2394 ;;		_xu_ly_lux
  2395 ;;		_lcd_puts
  2396 ;;		_putch
  2397 ;; This function uses a non-reentrant model
  2398 ;;
  2399                           psect	text988
  2400                           	file	"C:\Users\Administrator\Desktop\CODE1-ACE5\CODE1-FRAME WORK\CODE MPLAP\lcd.c"
  2401                           	line	143
  2402                           	global	__size_of_lcd_putc
  2403  005A                     	__size_of_lcd_putc	equ	__end_of_lcd_putc-_lcd_putc
  2404                           	
  2405  0BC1                     _lcd_putc:	
  2406                           	opt	stack 3
  2407                           ; Regs used in _lcd_putc: [wreg-fsr0h+status,2+status,0+pclath+cstack]
  2408                           ;lcd_putc@c stored from wreg
  2409  0BC1  1283               	bcf	status, 5	;RP0=0, select bank0
  2410  0BC2  1303               	bcf	status, 6	;RP1=0, select bank0
  2411  0BC3  00AA               	movwf	(lcd_putc@c)
  2412                           	line	144
  2413                           	
  2414  0BC4                     l5566:	
  2415                           ;lcd.c: 144: switch(c){
  2416  0BC4  2C10               	goto	l5582
  2417                           	line	145
  2418                           ;lcd.c: 145: case '\f':
  2419                           	
  2420  0BC5                     l1901:	
  2421                           	line	146
  2422                           	
  2423  0BC5                     l5568:	
  2424                           ;lcd.c: 146: lcd_put_byte(0, 1);
  2425  0BC5  01A0               	clrf	(?_lcd_put_byte)
  2426  0BC6  1403               	bsf	status,0
  2427  0BC7  0DA0               	rlf	(?_lcd_put_byte),f
  2428  0BC8  3000               	movlw	(0)
  2429  0BC9  120A  158A  273E   	fcall	_lcd_put_byte
              120A  158A         
  2430                           	line	147
  2431                           ;lcd.c: 147: while(lcd_busy());
  2432  0BCE  2BD0               	goto	l5570
  2433                           	
  2434  0BCF                     l1903:	
  2435  0BCF  2BD0               	goto	l5570
  2436                           	
  2437  0BD0                     l1902:	
  2438                           	
  2439  0BD0                     l5570:	
  2440  0BD0  120A  158A  2304   	fcall	_lcd_busy
              120A  158A         
  2441  0BD5  3800               	iorlw	0
  2442  0BD6  1D03               	skipz
  2443  0BD7  2BD9               	goto	u5501
  2444  0BD8  2BDA               	goto	u5500
  2445  0BD9                     u5501:
  2446  0BD9  2BD0               	goto	l5570
  2447  0BDA                     u5500:
  2448  0BDA  2C1A               	goto	l1912
  2449                           	
  2450  0BDB                     l1904:	
  2451                           	line	148
  2452                           ;lcd.c: 148: break;
  2453  0BDB  2C1A               	goto	l1912
  2454                           	line	149
  2455                           ;lcd.c: 149: case '\n':
  2456                           	
  2457  0BDC                     l1906:	
  2458                           	line	150
  2459                           	
  2460  0BDC                     l5572:	
  2461                           ;lcd.c: 150: lcd_gotoxy(0, 1);
  2462  0BDC  1283               	bcf	status, 5	;RP0=0, select bank0
  2463  0BDD  1303               	bcf	status, 6	;RP1=0, select bank0
  2464  0BDE  01A5               	clrf	(?_lcd_gotoxy)
  2465  0BDF  1403               	bsf	status,0
  2466  0BE0  0DA5               	rlf	(?_lcd_gotoxy),f
  2467  0BE1  3000               	movlw	(0)
  2468  0BE2  120A  158A  22A6   	fcall	_lcd_gotoxy
              120A  158A         
  2469                           	line	151
  2470                           ;lcd.c: 151: break;
  2471  0BE7  2C1A               	goto	l1912
  2472                           	line	152
  2473                           ;lcd.c: 152: default:
  2474                           	
  2475  0BE8                     l1907:	
  2476                           	line	153
  2477                           	
  2478  0BE8                     l5574:	
  2479                           ;lcd.c: 153: if(isprint(c)){
  2480  0BE8  1283               	bcf	status, 5	;RP0=0, select bank0
  2481  0BE9  1303               	bcf	status, 6	;RP1=0, select bank0
  2482  0BEA  082A               	movf	(lcd_putc@c),w
  2483  0BEB  120A  158A  221D   	fcall	_isprint
              120A  158A         
  2484  0BF0  1C03               	btfss	status,0
  2485  0BF1  2BF3               	goto	u5511
  2486  0BF2  2BF4               	goto	u5510
  2487  0BF3                     u5511:
  2488  0BF3  2C1A               	goto	l1912
  2489  0BF4                     u5510:
  2490                           	line	154
  2491                           	
  2492  0BF4                     l5576:	
  2493                           ;lcd.c: 154: lcd_put_byte(1, c);
  2494  0BF4  1283               	bcf	status, 5	;RP0=0, select bank0
  2495  0BF5  1303               	bcf	status, 6	;RP1=0, select bank0
  2496  0BF6  082A               	movf	(lcd_putc@c),w
  2497  0BF7  00A9               	movwf	(??_lcd_putc+0)+0
  2498  0BF8  0829               	movf	(??_lcd_putc+0)+0,w
  2499  0BF9  00A0               	movwf	(?_lcd_put_byte)
  2500  0BFA  3001               	movlw	(01h)
  2501  0BFB  120A  158A  273E   	fcall	_lcd_put_byte
              120A  158A         
  2502                           	line	155
  2503                           ;lcd.c: 155: while(lcd_busy());
  2504  0C00  2C02               	goto	l5578
  2505                           	
  2506  0C01                     l1910:	
  2507  0C01  2C02               	goto	l5578
  2508                           	
  2509  0C02                     l1909:	
  2510                           	
  2511  0C02                     l5578:	
  2512  0C02  120A  158A  2304   	fcall	_lcd_busy
              120A  158A         
  2513  0C07  3800               	iorlw	0
  2514  0C08  1D03               	skipz
  2515  0C09  2C0B               	goto	u5521
  2516  0C0A  2C0C               	goto	u5520
  2517  0C0B                     u5521:
  2518  0C0B  2C02               	goto	l5578
  2519  0C0C                     u5520:
  2520  0C0C  2C1A               	goto	l1912
  2521                           	
  2522  0C0D                     l1911:	
  2523  0C0D  2C1A               	goto	l1912
  2524                           	line	156
  2525                           	
  2526  0C0E                     l1908:	
  2527                           	line	157
  2528                           ;lcd.c: 156: }
  2529                           ;lcd.c: 157: break;
  2530  0C0E  2C1A               	goto	l1912
  2531                           	line	158
  2532                           	
  2533  0C0F                     l5580:	
  2534                           ;lcd.c: 158: }
  2535  0C0F  2C1A               	goto	l1912
  2536                           	line	144
  2537                           	
  2538  0C10                     l1900:	
  2539                           	
  2540  0C10                     l5582:	
  2541  0C10  1283               	bcf	status, 5	;RP0=0, select bank0
  2542  0C11  1303               	bcf	status, 6	;RP1=0, select bank0
  2543  0C12  082A               	movf	(lcd_putc@c),w
  2544                           	; Switch size 1, requested type "space"
  2545                           ; Number of cases is 2, Range of values is 10 to 12
  2546                           ; switch strategies available:
  2547                           ; Name         Bytes Cycles
  2548                           ; simple_byte     7     4 (average)
  2549                           ; direct_byte    31    22 (fixed)
  2550                           ;	Chosen strategy is simple_byte
  2551                           
  2552  0C13  3A0A               	xorlw	10^0	; case 10
  2553  0C14  1903               	skipnz
  2554  0C15  2BDC               	goto	l5572
  2555  0C16  3A06               	xorlw	12^10	; case 12
  2556  0C17  1903               	skipnz
  2557  0C18  2BC5               	goto	l5568
  2558  0C19  2BE8               	goto	l5574
  2559                           
  2560                           	line	158
  2561                           	
  2562  0C1A                     l1905:	
  2563                           	line	159
  2564                           	
  2565  0C1A                     l1912:	
  2566  0C1A  0008               	return
  2567                           	opt stack 0
  2568                           GLOBAL	__end_of_lcd_putc
  2569  0C1B                     	__end_of_lcd_putc:
  2570 ;; =============== function _lcd_putc ends ============
  2571                           
  2572                           	signat	_lcd_putc,4216
  2573                           	global	_lcd_init
  2574                           psect	text989,local,class=CODE,delta=2
  2575                           global __ptext989
  2576  04D9                     __ptext989:
  2577                           
  2578 ;; *************** function _lcd_init *****************
  2579 ;; Defined at:
  2580 ;;		line 5 in file "C:\Users\Administrator\Desktop\CODE1-ACE5\CODE1-FRAME WORK\CODE MPLAP\lcd.c"
  2581 ;; Parameters:    Size  Location     Type
  2582 ;;		None
  2583 ;; Auto vars:     Size  Location     Type
  2584 ;;  i               1    0        unsigned char 
  2585 ;; Return value:  Size  Location     Type
  2586 ;;		None               void
  2587 ;; Registers used:
  2588 ;;		wreg, status,2, status,0, pclath, cstack
  2589 ;; Tracked objects:
  2590 ;;		On entry : 0/0
  2591 ;;		On exit  : 0/0
  2592 ;;		Unchanged: 0/0
  2593 ;; Data sizes:     COMMON   BANK0   BANK1   BANK3   BANK2
  2594 ;;      Params:         0       0       0       0       0
  2595 ;;      Locals:         0       0       0       0       0
  2596 ;;      Temps:          0       2       0       0       0
  2597 ;;      Totals:         0       2       0       0       0
  2598 ;;Total ram usage:        2 bytes
  2599 ;; Hardware stack levels used:    1
  2600 ;; Hardware stack levels required when called:    2
  2601 ;; This function calls:
  2602 ;;		_lcd_put_byte
  2603 ;;		_lcd_busy
  2604 ;; This function is called by:
  2605 ;;		_main
  2606 ;; This function uses a non-reentrant model
  2607 ;;
  2608                           psect	text989
  2609                           	file	"C:\Users\Administrator\Desktop\CODE1-ACE5\CODE1-FRAME WORK\CODE MPLAP\lcd.c"
  2610                           	line	5
  2611                           	global	__size_of_lcd_init
  2612  0114                     	__size_of_lcd_init	equ	__end_of_lcd_init-_lcd_init
  2613                           	
  2614  04D9                     _lcd_init:	
  2615                           	opt	stack 5
  2616                           ; Regs used in _lcd_init: [wreg+status,2+status,0+pclath+cstack]
  2617                           	line	7
  2618                           	
  2619  04D9                     l5528:	
  2620                           ;lcd.c: 6: unsigned char i;
  2621                           ;lcd.c: 7: TRISD3 = 0;
  2622  04D9  1683               	bsf	status, 5	;RP0=1, select bank1
  2623  04DA  1303               	bcf	status, 6	;RP1=0, select bank1
  2624  04DB  1188               	bcf	(1091/8)^080h,(1091)&7
  2625                           	line	8
  2626                           ;lcd.c: 8: TRISD1 = 0;
  2627  04DC  1088               	bcf	(1089/8)^080h,(1089)&7
  2628                           	line	9
  2629                           ;lcd.c: 9: TRISD2 = 0;
  2630  04DD  1108               	bcf	(1090/8)^080h,(1090)&7
  2631                           	line	10
  2632                           ;lcd.c: 10: TRISD4 = 0;
  2633  04DE  1208               	bcf	(1092/8)^080h,(1092)&7
  2634                           	line	11
  2635                           ;lcd.c: 11: TRISD5 = 0;
  2636  04DF  1288               	bcf	(1093/8)^080h,(1093)&7
  2637                           	line	12
  2638                           ;lcd.c: 12: TRISD6 = 0;
  2639  04E0  1308               	bcf	(1094/8)^080h,(1094)&7
  2640                           	line	13
  2641                           ;lcd.c: 13: TRISD7 = 0;
  2642  04E1  1388               	bcf	(1095/8)^080h,(1095)&7
  2643                           	line	14
  2644                           ;lcd.c: 14: RD3 = 0;
  2645  04E2  1283               	bcf	status, 5	;RP0=0, select bank0
  2646  04E3  1303               	bcf	status, 6	;RP1=0, select bank0
  2647  04E4  1188               	bcf	(67/8),(67)&7
  2648                           	line	15
  2649                           ;lcd.c: 15: RD1 = 0;
  2650  04E5  1088               	bcf	(65/8),(65)&7
  2651                           	line	16
  2652                           ;lcd.c: 16: RD2 = 0;
  2653  04E6  1108               	bcf	(66/8),(66)&7
  2654                           	line	18
  2655                           	
  2656  04E7                     l5530:	
  2657                           ;lcd.c: 18: _delay((unsigned long)((100)*(4000000/4000.0)));
  2658                           	opt asmopt_off
  2659  04E7  3082               movlw	130
  2660  04E8  00A6               movwf	((??_lcd_init+0)+0+1),f
  2661  04E9  30DD               	movlw	221
  2662  04EA  00A5               movwf	((??_lcd_init+0)+0),f
  2663  04EB                     u5587:
  2664  04EB  0BA5               	decfsz	((??_lcd_init+0)+0),f
  2665  04EC  2CEB               	goto	u5587
  2666  04ED  0BA6               	decfsz	((??_lcd_init+0)+0+1),f
  2667  04EE  2CEB               	goto	u5587
  2668  04EF  2CF0               	nop2
  2669                           opt asmopt_on
  2670                           
  2671                           	line	21
  2672                           	
  2673  04F0                     l5532:	
  2674                           ;lcd.c: 21: lcd_put_byte(0,0x30);
  2675  04F0  3030               	movlw	(030h)
  2676  04F1  1283               	bcf	status, 5	;RP0=0, select bank0
  2677  04F2  1303               	bcf	status, 6	;RP1=0, select bank0
  2678  04F3  00A5               	movwf	(??_lcd_init+0)+0
  2679  04F4  0825               	movf	(??_lcd_init+0)+0,w
  2680  04F5  00A0               	movwf	(?_lcd_put_byte)
  2681  04F6  3000               	movlw	(0)
  2682  04F7  120A  158A  273E   	fcall	_lcd_put_byte
              120A  118A         
  2683                           	line	22
  2684                           	
  2685  04FC                     l5534:	
  2686                           ;lcd.c: 22: _delay((unsigned long)((50)*(4000000/4000.0)));
  2687                           	opt asmopt_off
  2688  04FC  3041               movlw	65
  2689  04FD  1283               	bcf	status, 5	;RP0=0, select bank0
  2690  04FE  1303               	bcf	status, 6	;RP1=0, select bank0
  2691  04FF  00A6               movwf	((??_lcd_init+0)+0+1),f
  2692  0500  30EE               	movlw	238
  2693  0501  00A5               movwf	((??_lcd_init+0)+0),f
  2694  0502                     u5597:
  2695  0502  0BA5               	decfsz	((??_lcd_init+0)+0),f
  2696  0503  2D02               	goto	u5597
  2697  0504  0BA6               	decfsz	((??_lcd_init+0)+0+1),f
  2698  0505  2D02               	goto	u5597
  2699  0506  0064               	clrwdt
  2700                           opt asmopt_on
  2701                           
  2702                           	line	23
  2703                           ;lcd.c: 23: lcd_put_byte(0,0x30);
  2704  0507  3030               	movlw	(030h)
  2705  0508  1283               	bcf	status, 5	;RP0=0, select bank0
  2706  0509  1303               	bcf	status, 6	;RP1=0, select bank0
  2707  050A  00A5               	movwf	(??_lcd_init+0)+0
  2708  050B  0825               	movf	(??_lcd_init+0)+0,w
  2709  050C  00A0               	movwf	(?_lcd_put_byte)
  2710  050D  3000               	movlw	(0)
  2711  050E  120A  158A  273E   	fcall	_lcd_put_byte
              120A  118A         
  2712                           	line	24
  2713                           	
  2714  0513                     l5536:	
  2715                           ;lcd.c: 24: _delay((unsigned long)((50)*(4000000/4000.0)));
  2716                           	opt asmopt_off
  2717  0513  3041               movlw	65
  2718  0514  1283               	bcf	status, 5	;RP0=0, select bank0
  2719  0515  1303               	bcf	status, 6	;RP1=0, select bank0
  2720  0516  00A6               movwf	((??_lcd_init+0)+0+1),f
  2721  0517  30EE               	movlw	238
  2722  0518  00A5               movwf	((??_lcd_init+0)+0),f
  2723  0519                     u5607:
  2724  0519  0BA5               	decfsz	((??_lcd_init+0)+0),f
  2725  051A  2D19               	goto	u5607
  2726  051B  0BA6               	decfsz	((??_lcd_init+0)+0+1),f
  2727  051C  2D19               	goto	u5607
  2728  051D  0064               	clrwdt
  2729                           opt asmopt_on
  2730                           
  2731                           	line	25
  2732                           	
  2733  051E                     l5538:	
  2734                           ;lcd.c: 25: lcd_put_byte(0,0x32);
  2735  051E  3032               	movlw	(032h)
  2736  051F  1283               	bcf	status, 5	;RP0=0, select bank0
  2737  0520  1303               	bcf	status, 6	;RP1=0, select bank0
  2738  0521  00A5               	movwf	(??_lcd_init+0)+0
  2739  0522  0825               	movf	(??_lcd_init+0)+0,w
  2740  0523  00A0               	movwf	(?_lcd_put_byte)
  2741  0524  3000               	movlw	(0)
  2742  0525  120A  158A  273E   	fcall	_lcd_put_byte
              120A  118A         
  2743                           	line	26
  2744                           ;lcd.c: 26: _delay((unsigned long)((100)*(4000000/4000.0)));
  2745                           	opt asmopt_off
  2746  052A  3082               movlw	130
  2747  052B  1283               	bcf	status, 5	;RP0=0, select bank0
  2748  052C  1303               	bcf	status, 6	;RP1=0, select bank0
  2749  052D  00A6               movwf	((??_lcd_init+0)+0+1),f
  2750  052E  30DD               	movlw	221
  2751  052F  00A5               movwf	((??_lcd_init+0)+0),f
  2752  0530                     u5617:
  2753  0530  0BA5               	decfsz	((??_lcd_init+0)+0),f
  2754  0531  2D30               	goto	u5617
  2755  0532  0BA6               	decfsz	((??_lcd_init+0)+0+1),f
  2756  0533  2D30               	goto	u5617
  2757  0534  2D35               	nop2
  2758                           opt asmopt_on
  2759                           
  2760                           	line	27
  2761                           ;lcd.c: 27: _delay((unsigned long)((100)*(4000000/4000.0)));
  2762                           	opt asmopt_off
  2763  0535  3082               movlw	130
  2764  0536  1283               	bcf	status, 5	;RP0=0, select bank0
  2765  0537  1303               	bcf	status, 6	;RP1=0, select bank0
  2766  0538  00A6               movwf	((??_lcd_init+0)+0+1),f
  2767  0539  30DD               	movlw	221
  2768  053A  00A5               movwf	((??_lcd_init+0)+0),f
  2769  053B                     u5627:
  2770  053B  0BA5               	decfsz	((??_lcd_init+0)+0),f
  2771  053C  2D3B               	goto	u5627
  2772  053D  0BA6               	decfsz	((??_lcd_init+0)+0+1),f
  2773  053E  2D3B               	goto	u5627
  2774  053F  2D40               	nop2
  2775                           opt asmopt_on
  2776                           
  2777                           	line	28
  2778                           ;lcd.c: 28: _delay((unsigned long)((100)*(4000000/4000.0)));
  2779                           	opt asmopt_off
  2780  0540  3082               movlw	130
  2781  0541  1283               	bcf	status, 5	;RP0=0, select bank0
  2782  0542  1303               	bcf	status, 6	;RP1=0, select bank0
  2783  0543  00A6               movwf	((??_lcd_init+0)+0+1),f
  2784  0544  30DD               	movlw	221
  2785  0545  00A5               movwf	((??_lcd_init+0)+0),f
  2786  0546                     u5637:
  2787  0546  0BA5               	decfsz	((??_lcd_init+0)+0),f
  2788  0547  2D46               	goto	u5637
  2789  0548  0BA6               	decfsz	((??_lcd_init+0)+0+1),f
  2790  0549  2D46               	goto	u5637
  2791  054A  2D4B               	nop2
  2792                           opt asmopt_on
  2793                           
  2794                           	line	30
  2795                           ;lcd.c: 30: while(lcd_busy());
  2796  054B  2D4D               	goto	l5540
  2797                           	
  2798  054C                     l1866:	
  2799  054C  2D4D               	goto	l5540
  2800                           	
  2801  054D                     l1865:	
  2802                           	
  2803  054D                     l5540:	
  2804  054D  120A  158A  2304   	fcall	_lcd_busy
              120A  118A         
  2805  0552  3800               	iorlw	0
  2806  0553  1D03               	skipz
  2807  0554  2D56               	goto	u5431
  2808  0555  2D57               	goto	u5430
  2809  0556                     u5431:
  2810  0556  2D4D               	goto	l5540
  2811  0557                     u5430:
  2812  0557  2D58               	goto	l5542
  2813                           	
  2814  0558                     l1867:	
  2815                           	line	31
  2816                           	
  2817  0558                     l5542:	
  2818                           ;lcd.c: 31: lcd_put_byte(0,0b00101100 & 0b00111000);
  2819  0558  3028               	movlw	(028h)
  2820  0559  1283               	bcf	status, 5	;RP0=0, select bank0
  2821  055A  1303               	bcf	status, 6	;RP1=0, select bank0
  2822  055B  00A5               	movwf	(??_lcd_init+0)+0
  2823  055C  0825               	movf	(??_lcd_init+0)+0,w
  2824  055D  00A0               	movwf	(?_lcd_put_byte)
  2825  055E  3000               	movlw	(0)
  2826  055F  120A  158A  273E   	fcall	_lcd_put_byte
              120A  118A         
  2827                           	line	32
  2828                           ;lcd.c: 32: while(lcd_busy());
  2829  0564  2D66               	goto	l5544
  2830                           	
  2831  0565                     l1869:	
  2832  0565  2D66               	goto	l5544
  2833                           	
  2834  0566                     l1868:	
  2835                           	
  2836  0566                     l5544:	
  2837  0566  120A  158A  2304   	fcall	_lcd_busy
              120A  118A         
  2838  056B  3800               	iorlw	0
  2839  056C  1D03               	skipz
  2840  056D  2D6F               	goto	u5441
  2841  056E  2D70               	goto	u5440
  2842  056F                     u5441:
  2843  056F  2D66               	goto	l5544
  2844  0570                     u5440:
  2845  0570  2D71               	goto	l5546
  2846                           	
  2847  0571                     l1870:	
  2848                           	line	34
  2849                           	
  2850  0571                     l5546:	
  2851                           ;lcd.c: 34: lcd_put_byte(0,0b00001011&0b00001101&0b00001110);
  2852  0571  3008               	movlw	(08h)
  2853  0572  1283               	bcf	status, 5	;RP0=0, select bank0
  2854  0573  1303               	bcf	status, 6	;RP1=0, select bank0
  2855  0574  00A5               	movwf	(??_lcd_init+0)+0
  2856  0575  0825               	movf	(??_lcd_init+0)+0,w
  2857  0576  00A0               	movwf	(?_lcd_put_byte)
  2858  0577  3000               	movlw	(0)
  2859  0578  120A  158A  273E   	fcall	_lcd_put_byte
              120A  118A         
  2860                           	line	35
  2861                           ;lcd.c: 35: while(lcd_busy());
  2862  057D  2D7F               	goto	l5548
  2863                           	
  2864  057E                     l1872:	
  2865  057E  2D7F               	goto	l5548
  2866                           	
  2867  057F                     l1871:	
  2868                           	
  2869  057F                     l5548:	
  2870  057F  120A  158A  2304   	fcall	_lcd_busy
              120A  118A         
  2871  0584  3800               	iorlw	0
  2872  0585  1D03               	skipz
  2873  0586  2D88               	goto	u5451
  2874  0587  2D89               	goto	u5450
  2875  0588                     u5451:
  2876  0588  2D7F               	goto	l5548
  2877  0589                     u5450:
  2878  0589  2D8A               	goto	l5550
  2879                           	
  2880  058A                     l1873:	
  2881                           	line	36
  2882                           	
  2883  058A                     l5550:	
  2884                           ;lcd.c: 36: lcd_put_byte(0,0b00001111&0b00001101&0b00001110);
  2885  058A  300C               	movlw	(0Ch)
  2886  058B  1283               	bcf	status, 5	;RP0=0, select bank0
  2887  058C  1303               	bcf	status, 6	;RP1=0, select bank0
  2888  058D  00A5               	movwf	(??_lcd_init+0)+0
  2889  058E  0825               	movf	(??_lcd_init+0)+0,w
  2890  058F  00A0               	movwf	(?_lcd_put_byte)
  2891  0590  3000               	movlw	(0)
  2892  0591  120A  158A  273E   	fcall	_lcd_put_byte
              120A  118A         
  2893                           	line	37
  2894                           ;lcd.c: 37: while(lcd_busy());
  2895  0596  2D98               	goto	l5552
  2896                           	
  2897  0597                     l1875:	
  2898  0597  2D98               	goto	l5552
  2899                           	
  2900  0598                     l1874:	
  2901                           	
  2902  0598                     l5552:	
  2903  0598  120A  158A  2304   	fcall	_lcd_busy
              120A  118A         
  2904  059D  3800               	iorlw	0
  2905  059E  1D03               	skipz
  2906  059F  2DA1               	goto	u5461
  2907  05A0  2DA2               	goto	u5460
  2908  05A1                     u5461:
  2909  05A1  2D98               	goto	l5552
  2910  05A2                     u5460:
  2911  05A2  2DA3               	goto	l5554
  2912                           	
  2913  05A3                     l1876:	
  2914                           	line	39
  2915                           	
  2916  05A3                     l5554:	
  2917                           ;lcd.c: 39: lcd_put_byte(0,0x01);
  2918  05A3  1283               	bcf	status, 5	;RP0=0, select bank0
  2919  05A4  1303               	bcf	status, 6	;RP1=0, select bank0
  2920  05A5  01A0               	clrf	(?_lcd_put_byte)
  2921  05A6  1403               	bsf	status,0
  2922  05A7  0DA0               	rlf	(?_lcd_put_byte),f
  2923  05A8  3000               	movlw	(0)
  2924  05A9  120A  158A  273E   	fcall	_lcd_put_byte
              120A  118A         
  2925                           	line	40
  2926                           ;lcd.c: 40: while(lcd_busy());
  2927  05AE  2DB0               	goto	l5556
  2928                           	
  2929  05AF                     l1878:	
  2930  05AF  2DB0               	goto	l5556
  2931                           	
  2932  05B0                     l1877:	
  2933                           	
  2934  05B0                     l5556:	
  2935  05B0  120A  158A  2304   	fcall	_lcd_busy
              120A  118A         
  2936  05B5  3800               	iorlw	0
  2937  05B6  1D03               	skipz
  2938  05B7  2DB9               	goto	u5471
  2939  05B8  2DBA               	goto	u5470
  2940  05B9                     u5471:
  2941  05B9  2DB0               	goto	l5556
  2942  05BA                     u5470:
  2943  05BA  2DBB               	goto	l5558
  2944                           	
  2945  05BB                     l1879:	
  2946                           	line	41
  2947                           	
  2948  05BB                     l5558:	
  2949                           ;lcd.c: 41: lcd_put_byte(0,0b00000100);
  2950  05BB  3004               	movlw	(04h)
  2951  05BC  1283               	bcf	status, 5	;RP0=0, select bank0
  2952  05BD  1303               	bcf	status, 6	;RP1=0, select bank0
  2953  05BE  00A5               	movwf	(??_lcd_init+0)+0
  2954  05BF  0825               	movf	(??_lcd_init+0)+0,w
  2955  05C0  00A0               	movwf	(?_lcd_put_byte)
  2956  05C1  3000               	movlw	(0)
  2957  05C2  120A  158A  273E   	fcall	_lcd_put_byte
              120A  118A         
  2958                           	line	42
  2959                           ;lcd.c: 42: while(lcd_busy());
  2960  05C7  2DC9               	goto	l5560
  2961                           	
  2962  05C8                     l1881:	
  2963  05C8  2DC9               	goto	l5560
  2964                           	
  2965  05C9                     l1880:	
  2966                           	
  2967  05C9                     l5560:	
  2968  05C9  120A  158A  2304   	fcall	_lcd_busy
              120A  118A         
  2969  05CE  3800               	iorlw	0
  2970  05CF  1D03               	skipz
  2971  05D0  2DD2               	goto	u5481
  2972  05D1  2DD3               	goto	u5480
  2973  05D2                     u5481:
  2974  05D2  2DC9               	goto	l5560
  2975  05D3                     u5480:
  2976  05D3  2DD4               	goto	l5562
  2977                           	
  2978  05D4                     l1882:	
  2979                           	line	43
  2980                           	
  2981  05D4                     l5562:	
  2982                           ;lcd.c: 43: lcd_put_byte(0,0x01);
  2983  05D4  1283               	bcf	status, 5	;RP0=0, select bank0
  2984  05D5  1303               	bcf	status, 6	;RP1=0, select bank0
  2985  05D6  01A0               	clrf	(?_lcd_put_byte)
  2986  05D7  1403               	bsf	status,0
  2987  05D8  0DA0               	rlf	(?_lcd_put_byte),f
  2988  05D9  3000               	movlw	(0)
  2989  05DA  120A  158A  273E   	fcall	_lcd_put_byte
              120A  118A         
  2990                           	line	44
  2991                           ;lcd.c: 44: while(lcd_busy());
  2992  05DF  2DE1               	goto	l5564
  2993                           	
  2994  05E0                     l1884:	
  2995  05E0  2DE1               	goto	l5564
  2996                           	
  2997  05E1                     l1883:	
  2998                           	
  2999  05E1                     l5564:	
  3000  05E1  120A  158A  2304   	fcall	_lcd_busy
              120A  118A         
  3001  05E6  3800               	iorlw	0
  3002  05E7  1D03               	skipz
  3003  05E8  2DEA               	goto	u5491
  3004  05E9  2DEB               	goto	u5490
  3005  05EA                     u5491:
  3006  05EA  2DE1               	goto	l5564
  3007  05EB                     u5490:
  3008  05EB  2DEC               	goto	l1886
  3009                           	
  3010  05EC                     l1885:	
  3011                           	line	45
  3012                           	
  3013  05EC                     l1886:	
  3014  05EC  0008               	return
  3015                           	opt stack 0
  3016                           GLOBAL	__end_of_lcd_init
  3017  05ED                     	__end_of_lcd_init:
  3018 ;; =============== function _lcd_init ends ============
  3019                           
  3020                           	signat	_lcd_init,88
  3021                           	global	_send_lux
  3022                           psect	text990,local,class=CODE,delta=2
  3023                           global __ptext990
  3024  03AE                     __ptext990:
  3025                           
  3026 ;; *************** function _send_lux *****************
  3027 ;; Defined at:
  3028 ;;		line 235 in file "C:\Users\Administrator\Desktop\CODE1-ACE5\CODE1-FRAME WORK\CODE MPLAP\main.c"
  3029 ;; Parameters:    Size  Location     Type
  3030 ;;		None
  3031 ;; Auto vars:     Size  Location     Type
  3032 ;;		None
  3033 ;; Return value:  Size  Location     Type
  3034 ;;		None               void
  3035 ;; Registers used:
  3036 ;;		wreg, status,2, status,0, pclath, cstack
  3037 ;; Tracked objects:
  3038 ;;		On entry : 0/0
  3039 ;;		On exit  : 0/0
  3040 ;;		Unchanged: 0/0
  3041 ;; Data sizes:     COMMON   BANK0   BANK1   BANK3   BANK2
  3042 ;;      Params:         0       0       0       0       0
  3043 ;;      Locals:         0       0       2       0       0
  3044 ;;      Temps:          0       0       1       0       0
  3045 ;;      Totals:         0       0       3       0       0
  3046 ;;Total ram usage:        3 bytes
  3047 ;; Hardware stack levels used:    1
  3048 ;; Hardware stack levels required when called:    3
  3049 ;; This function calls:
  3050 ;;		___ftmul
  3051 ;;		___fttol
  3052 ;;		___awdiv
  3053 ;;		___awmod
  3054 ;;		_uart_tx
  3055 ;;		_delay_ms
  3056 ;; This function is called by:
  3057 ;;		_main
  3058 ;; This function uses a non-reentrant model
  3059 ;;
  3060                           psect	text990
  3061                           	file	"C:\Users\Administrator\Desktop\CODE1-ACE5\CODE1-FRAME WORK\CODE MPLAP\main.c"
  3062                           	line	235
  3063                           	global	__size_of_send_lux
  3064  012B                     	__size_of_send_lux	equ	__end_of_send_lux-_send_lux
  3065                           	
  3066  03AE                     _send_lux:	
  3067                           	opt	stack 4
  3068                           ; Regs used in _send_lux: [wreg+status,2+status,0+pclath+cstack]
  3069                           	line	236
  3070                           	
  3071  03AE                     l5526:	
  3072                           ;main.c: 236: value2=value1*10;
  3073  03AE  1683               	bsf	status, 5	;RP0=1, select bank1
  3074  03AF  1303               	bcf	status, 6	;RP1=0, select bank1
  3075  03B0  083C               	movf	(_value1)^080h,w
  3076  03B1  1283               	bcf	status, 5	;RP0=0, select bank0
  3077  03B2  1303               	bcf	status, 6	;RP1=0, select bank0
  3078  03B3  00CF               	movwf	0+(?___ftmul)+03h
  3079  03B4  1683               	bsf	status, 5	;RP0=1, select bank1
  3080  03B5  1303               	bcf	status, 6	;RP1=0, select bank1
  3081  03B6  083D               	movf	(_value1+1)^080h,w
  3082  03B7  1283               	bcf	status, 5	;RP0=0, select bank0
  3083  03B8  1303               	bcf	status, 6	;RP1=0, select bank0
  3084  03B9  00D0               	movwf	1+(?___ftmul)+03h
  3085  03BA  1683               	bsf	status, 5	;RP0=1, select bank1
  3086  03BB  1303               	bcf	status, 6	;RP1=0, select bank1
  3087  03BC  083E               	movf	(_value1+2)^080h,w
  3088  03BD  1283               	bcf	status, 5	;RP0=0, select bank0
  3089  03BE  1303               	bcf	status, 6	;RP1=0, select bank0
  3090  03BF  00D1               	movwf	2+(?___ftmul)+03h
  3091  03C0  3000               	movlw	0x0
  3092  03C1  00CC               	movwf	(?___ftmul)
  3093  03C2  3020               	movlw	0x20
  3094  03C3  00CD               	movwf	(?___ftmul+1)
  3095  03C4  3041               	movlw	0x41
  3096  03C5  00CE               	movwf	(?___ftmul+2)
  3097  03C6  120A  118A  25ED   	fcall	___ftmul
              120A  118A         
  3098  03CB  1283               	bcf	status, 5	;RP0=0, select bank0
  3099  03CC  1303               	bcf	status, 6	;RP1=0, select bank0
  3100  03CD  084C               	movf	(0+(?___ftmul)),w
  3101  03CE  00AB               	movwf	(?___fttol)
  3102  03CF  084D               	movf	(1+(?___ftmul)),w
  3103  03D0  00AC               	movwf	(?___fttol+1)
  3104  03D1  084E               	movf	(2+(?___ftmul)),w
  3105  03D2  00AD               	movwf	(?___fttol+2)
  3106  03D3  120A  158A  2698   	fcall	___fttol
              120A  118A         
  3107  03D8  1283               	bcf	status, 5	;RP0=0, select bank0
  3108  03D9  1303               	bcf	status, 6	;RP1=0, select bank0
  3109  03DA  082C               	movf	1+(((0+(?___fttol)))),w
  3110  03DB  01DF               	clrf	(_value2+1)
  3111  03DC  07DF               	addwf	(_value2+1)
  3112  03DD  082B               	movf	0+(((0+(?___fttol)))),w
  3113  03DE  01DE               	clrf	(_value2)
  3114  03DF  07DE               	addwf	(_value2)
  3115                           
  3116                           	line	237
  3117                           ;main.c: 237: nghinlux=(value2/1000);
  3118  03E0  30E8               	movlw	low(03E8h)
  3119  03E1  00A7               	movwf	(?___awdiv)
  3120  03E2  3003               	movlw	high(03E8h)
  3121  03E3  00A8               	movwf	((?___awdiv))+1
  3122  03E4  085F               	movf	(_value2+1),w
  3123  03E5  01AA               	clrf	1+(?___awdiv)+02h
  3124  03E6  07AA               	addwf	1+(?___awdiv)+02h
  3125  03E7  085E               	movf	(_value2),w
  3126  03E8  01A9               	clrf	0+(?___awdiv)+02h
  3127  03E9  07A9               	addwf	0+(?___awdiv)+02h
  3128                           
  3129  03EA  120A  158A  2487   	fcall	___awdiv
              120A  118A         
  3130  03EF  1283               	bcf	status, 5	;RP0=0, select bank0
  3131  03F0  1303               	bcf	status, 6	;RP1=0, select bank0
  3132  03F1  0827               	movf	(0+(?___awdiv)),w
  3133  03F2  1683               	bsf	status, 5	;RP0=1, select bank1
  3134  03F3  1303               	bcf	status, 6	;RP1=0, select bank1
  3135  03F4  00E7               	movwf	(??_send_lux+0)^080h+0
  3136  03F5  0867               	movf	(??_send_lux+0)^080h+0,w
  3137  03F6  1283               	bcf	status, 5	;RP0=0, select bank0
  3138  03F7  1303               	bcf	status, 6	;RP1=0, select bank0
  3139  03F8  00EA               	movwf	(_nghinlux)
  3140                           	line	238
  3141                           ;main.c: 238: tramlux=((value2%1000)/100);
  3142  03F9  3064               	movlw	low(064h)
  3143  03FA  00A7               	movwf	(?___awdiv)
  3144  03FB  3000               	movlw	high(064h)
  3145  03FC  00A8               	movwf	((?___awdiv))+1
  3146  03FD  085F               	movf	(_value2+1),w
  3147  03FE  01A3               	clrf	1+(?___awmod)+02h
  3148  03FF  07A3               	addwf	1+(?___awmod)+02h
  3149  0400  085E               	movf	(_value2),w
  3150  0401  01A2               	clrf	0+(?___awmod)+02h
  3151  0402  07A2               	addwf	0+(?___awmod)+02h
  3152                           
  3153  0403  30E8               	movlw	low(03E8h)
  3154  0404  00A0               	movwf	(?___awmod)
  3155  0405  3003               	movlw	high(03E8h)
  3156  0406  00A1               	movwf	((?___awmod))+1
  3157  0407  120A  158A  241B   	fcall	___awmod
              120A  118A         
  3158  040C  1283               	bcf	status, 5	;RP0=0, select bank0
  3159  040D  1303               	bcf	status, 6	;RP1=0, select bank0
  3160  040E  0821               	movf	(1+(?___awmod)),w
  3161  040F  01AA               	clrf	1+(?___awdiv)+02h
  3162  0410  07AA               	addwf	1+(?___awdiv)+02h
  3163  0411  0820               	movf	(0+(?___awmod)),w
  3164  0412  01A9               	clrf	0+(?___awdiv)+02h
  3165  0413  07A9               	addwf	0+(?___awdiv)+02h
  3166                           
  3167  0414  120A  158A  2487   	fcall	___awdiv
              120A  118A         
  3168  0419  1283               	bcf	status, 5	;RP0=0, select bank0
  3169  041A  1303               	bcf	status, 6	;RP1=0, select bank0
  3170  041B  0827               	movf	(0+(?___awdiv)),w
  3171  041C  1683               	bsf	status, 5	;RP0=1, select bank1
  3172  041D  1303               	bcf	status, 6	;RP1=0, select bank1
  3173  041E  00E7               	movwf	(??_send_lux+0)^080h+0
  3174  041F  0867               	movf	(??_send_lux+0)^080h+0,w
  3175  0420  1283               	bcf	status, 5	;RP0=0, select bank0
  3176  0421  1303               	bcf	status, 6	;RP1=0, select bank0
  3177  0422  00EF               	movwf	(_tramlux)
  3178                           	line	239
  3179                           ;main.c: 239: chuclux=(((value2%1000)%100)/10);
  3180  0423  300A               	movlw	low(0Ah)
  3181  0424  00A7               	movwf	(?___awdiv)
  3182  0425  3000               	movlw	high(0Ah)
  3183  0426  00A8               	movwf	((?___awdiv))+1
  3184  0427  085F               	movf	(_value2+1),w
  3185  0428  01A3               	clrf	1+(?___awmod)+02h
  3186  0429  07A3               	addwf	1+(?___awmod)+02h
  3187  042A  085E               	movf	(_value2),w
  3188  042B  01A2               	clrf	0+(?___awmod)+02h
  3189  042C  07A2               	addwf	0+(?___awmod)+02h
  3190                           
  3191  042D  30E8               	movlw	low(03E8h)
  3192  042E  00A0               	movwf	(?___awmod)
  3193  042F  3003               	movlw	high(03E8h)
  3194  0430  00A1               	movwf	((?___awmod))+1
  3195  0431  120A  158A  241B   	fcall	___awmod
              120A  118A         
  3196  0436  1283               	bcf	status, 5	;RP0=0, select bank0
  3197  0437  1303               	bcf	status, 6	;RP1=0, select bank0
  3198  0438  0821               	movf	(1+(?___awmod)),w
  3199  0439  01A3               	clrf	1+(?___awmod)+02h
  3200  043A  07A3               	addwf	1+(?___awmod)+02h
  3201  043B  0820               	movf	(0+(?___awmod)),w
  3202  043C  01A2               	clrf	0+(?___awmod)+02h
  3203  043D  07A2               	addwf	0+(?___awmod)+02h
  3204                           
  3205  043E  3064               	movlw	low(064h)
  3206  043F  00A0               	movwf	(?___awmod)
  3207  0440  3000               	movlw	high(064h)
  3208  0441  00A1               	movwf	((?___awmod))+1
  3209  0442  120A  158A  241B   	fcall	___awmod
              120A  118A         
  3210  0447  1283               	bcf	status, 5	;RP0=0, select bank0
  3211  0448  1303               	bcf	status, 6	;RP1=0, select bank0
  3212  0449  0821               	movf	(1+(?___awmod)),w
  3213  044A  01AA               	clrf	1+(?___awdiv)+02h
  3214  044B  07AA               	addwf	1+(?___awdiv)+02h
  3215  044C  0820               	movf	(0+(?___awmod)),w
  3216  044D  01A9               	clrf	0+(?___awdiv)+02h
  3217  044E  07A9               	addwf	0+(?___awdiv)+02h
  3218                           
  3219  044F  120A  158A  2487   	fcall	___awdiv
              120A  118A         
  3220  0454  1283               	bcf	status, 5	;RP0=0, select bank0
  3221  0455  1303               	bcf	status, 6	;RP1=0, select bank0
  3222  0456  0827               	movf	(0+(?___awdiv)),w
  3223  0457  1683               	bsf	status, 5	;RP0=1, select bank1
  3224  0458  1303               	bcf	status, 6	;RP1=0, select bank1
  3225  0459  00E7               	movwf	(??_send_lux+0)^080h+0
  3226  045A  0867               	movf	(??_send_lux+0)^080h+0,w
  3227  045B  1283               	bcf	status, 5	;RP0=0, select bank0
  3228  045C  1303               	bcf	status, 6	;RP1=0, select bank0
  3229  045D  00E4               	movwf	(_chuclux)
  3230                           	line	240
  3231                           ;main.c: 240: dvilux=(((value2%1000)%100)%10);
  3232  045E  085F               	movf	(_value2+1),w
  3233  045F  01A3               	clrf	1+(?___awmod)+02h
  3234  0460  07A3               	addwf	1+(?___awmod)+02h
  3235  0461  085E               	movf	(_value2),w
  3236  0462  01A2               	clrf	0+(?___awmod)+02h
  3237  0463  07A2               	addwf	0+(?___awmod)+02h
  3238                           
  3239  0464  30E8               	movlw	low(03E8h)
  3240  0465  00A0               	movwf	(?___awmod)
  3241  0466  3003               	movlw	high(03E8h)
  3242  0467  00A1               	movwf	((?___awmod))+1
  3243  0468  120A  158A  241B   	fcall	___awmod
              120A  118A         
  3244  046D  1283               	bcf	status, 5	;RP0=0, select bank0
  3245  046E  1303               	bcf	status, 6	;RP1=0, select bank0
  3246  046F  0821               	movf	(1+(?___awmod)),w
  3247  0470  01A3               	clrf	1+(?___awmod)+02h
  3248  0471  07A3               	addwf	1+(?___awmod)+02h
  3249  0472  0820               	movf	(0+(?___awmod)),w
  3250  0473  01A2               	clrf	0+(?___awmod)+02h
  3251  0474  07A2               	addwf	0+(?___awmod)+02h
  3252                           
  3253  0475  3064               	movlw	low(064h)
  3254  0476  00A0               	movwf	(?___awmod)
  3255  0477  3000               	movlw	high(064h)
  3256  0478  00A1               	movwf	((?___awmod))+1
  3257  0479  120A  158A  241B   	fcall	___awmod
              120A  118A         
  3258  047E  1283               	bcf	status, 5	;RP0=0, select bank0
  3259  047F  1303               	bcf	status, 6	;RP1=0, select bank0
  3260  0480  0821               	movf	(1+(?___awmod)),w
  3261  0481  1683               	bsf	status, 5	;RP0=1, select bank1
  3262  0482  1303               	bcf	status, 6	;RP1=0, select bank1
  3263  0483  01E9               	clrf	(_send_lux$1404+1)^080h
  3264  0484  07E9               	addwf	(_send_lux$1404+1)^080h
  3265  0485  1283               	bcf	status, 5	;RP0=0, select bank0
  3266  0486  1303               	bcf	status, 6	;RP1=0, select bank0
  3267  0487  0820               	movf	(0+(?___awmod)),w
  3268  0488  1683               	bsf	status, 5	;RP0=1, select bank1
  3269  0489  1303               	bcf	status, 6	;RP1=0, select bank1
  3270  048A  01E8               	clrf	(_send_lux$1404)^080h
  3271  048B  07E8               	addwf	(_send_lux$1404)^080h
  3272                           
  3273                           ;main.c: 240: dvilux=(((value2%1000)%100)%10);
  3274  048C  300A               	movlw	low(0Ah)
  3275  048D  1283               	bcf	status, 5	;RP0=0, select bank0
  3276  048E  1303               	bcf	status, 6	;RP1=0, select bank0
  3277  048F  00A0               	movwf	(?___awmod)
  3278  0490  3000               	movlw	high(0Ah)
  3279  0491  00A1               	movwf	((?___awmod))+1
  3280  0492  1683               	bsf	status, 5	;RP0=1, select bank1
  3281  0493  1303               	bcf	status, 6	;RP1=0, select bank1
  3282  0494  0869               	movf	(_send_lux$1404+1)^080h,w
  3283  0495  1283               	bcf	status, 5	;RP0=0, select bank0
  3284  0496  1303               	bcf	status, 6	;RP1=0, select bank0
  3285  0497  01A3               	clrf	1+(?___awmod)+02h
  3286  0498  07A3               	addwf	1+(?___awmod)+02h
  3287  0499  1683               	bsf	status, 5	;RP0=1, select bank1
  3288  049A  1303               	bcf	status, 6	;RP1=0, select bank1
  3289  049B  0868               	movf	(_send_lux$1404)^080h,w
  3290  049C  1283               	bcf	status, 5	;RP0=0, select bank0
  3291  049D  1303               	bcf	status, 6	;RP1=0, select bank0
  3292  049E  01A2               	clrf	0+(?___awmod)+02h
  3293  049F  07A2               	addwf	0+(?___awmod)+02h
  3294                           
  3295  04A0  120A  158A  241B   	fcall	___awmod
              120A  118A         
  3296  04A5  1283               	bcf	status, 5	;RP0=0, select bank0
  3297  04A6  1303               	bcf	status, 6	;RP1=0, select bank0
  3298  04A7  0820               	movf	(0+(?___awmod)),w
  3299  04A8  1683               	bsf	status, 5	;RP0=1, select bank1
  3300  04A9  1303               	bcf	status, 6	;RP1=0, select bank1
  3301  04AA  00E7               	movwf	(??_send_lux+0)^080h+0
  3302  04AB  0867               	movf	(??_send_lux+0)^080h+0,w
  3303  04AC  1283               	bcf	status, 5	;RP0=0, select bank0
  3304  04AD  1303               	bcf	status, 6	;RP1=0, select bank0
  3305  04AE  00E7               	movwf	(_dvilux)
  3306                           	line	242
  3307                           ;main.c: 242: uart_tx(nghinlux);
  3308  04AF  086A               	movf	(_nghinlux),w
  3309  04B0  120A  158A  21B9   	fcall	_uart_tx
              120A  118A         
  3310                           	line	243
  3311                           ;main.c: 243: uart_tx(tramlux);
  3312  04B5  1283               	bcf	status, 5	;RP0=0, select bank0
  3313  04B6  1303               	bcf	status, 6	;RP1=0, select bank0
  3314  04B7  086F               	movf	(_tramlux),w
  3315  04B8  120A  158A  21B9   	fcall	_uart_tx
              120A  118A         
  3316                           	line	244
  3317                           ;main.c: 244: uart_tx(chuclux);
  3318  04BD  1283               	bcf	status, 5	;RP0=0, select bank0
  3319  04BE  1303               	bcf	status, 6	;RP1=0, select bank0
  3320  04BF  0864               	movf	(_chuclux),w
  3321  04C0  120A  158A  21B9   	fcall	_uart_tx
              120A  118A         
  3322                           	line	245
  3323                           ;main.c: 245: uart_tx(dvilux);
  3324  04C5  1283               	bcf	status, 5	;RP0=0, select bank0
  3325  04C6  1303               	bcf	status, 6	;RP1=0, select bank0
  3326  04C7  0867               	movf	(_dvilux),w
  3327  04C8  120A  158A  21B9   	fcall	_uart_tx
              120A  118A         
  3328                           	line	246
  3329                           ;main.c: 246: delay_ms(200);
  3330  04CD  30C8               	movlw	low(0C8h)
  3331  04CE  1283               	bcf	status, 5	;RP0=0, select bank0
  3332  04CF  1303               	bcf	status, 6	;RP1=0, select bank0
  3333  04D0  00A0               	movwf	(?_delay_ms)
  3334  04D1  3000               	movlw	high(0C8h)
  3335  04D2  00A1               	movwf	((?_delay_ms))+1
  3336  04D3  120A  158A  227E   	fcall	_delay_ms
              120A  118A         
  3337                           	line	247
  3338                           	
  3339  04D8                     l1011:	
  3340  04D8  0008               	return
  3341                           	opt stack 0
  3342                           GLOBAL	__end_of_send_lux
  3343  04D9                     	__end_of_send_lux:
  3344 ;; =============== function _send_lux ends ============
  3345                           
  3346                           	signat	_send_lux,88
  3347                           	global	_lcd_gotoxy
  3348                           psect	text991,local,class=CODE,delta=2
  3349                           global __ptext991
  3350  0AA6                     __ptext991:
  3351                           
  3352 ;; *************** function _lcd_gotoxy *****************
  3353 ;; Defined at:
  3354 ;;		line 162 in file "C:\Users\Administrator\Desktop\CODE1-ACE5\CODE1-FRAME WORK\CODE MPLAP\lcd.c"
  3355 ;; Parameters:    Size  Location     Type
  3356 ;;  col             1    wreg     unsigned char 
  3357 ;;  row             1    5[BANK0 ] unsigned char 
  3358 ;; Auto vars:     Size  Location     Type
  3359 ;;  col             1    7[BANK0 ] unsigned char 
  3360 ;;  address         1    8[BANK0 ] unsigned char 
  3361 ;; Return value:  Size  Location     Type
  3362 ;;		None               void
  3363 ;; Registers used:
  3364 ;;		wreg, status,2, status,0, pclath, cstack
  3365 ;; Tracked objects:
  3366 ;;		On entry : 0/0
  3367 ;;		On exit  : 0/0
  3368 ;;		Unchanged: 0/0
  3369 ;; Data sizes:     COMMON   BANK0   BANK1   BANK3   BANK2
  3370 ;;      Params:         0       1       0       0       0
  3371 ;;      Locals:         0       2       0       0       0
  3372 ;;      Temps:          0       1       0       0       0
  3373 ;;      Totals:         0       4       0       0       0
  3374 ;;Total ram usage:        4 bytes
  3375 ;; Hardware stack levels used:    1
  3376 ;; Hardware stack levels required when called:    2
  3377 ;; This function calls:
  3378 ;;		_lcd_put_byte
  3379 ;;		_lcd_busy
  3380 ;; This function is called by:
  3381 ;;		_xu_ly_lux
  3382 ;;		_lcd_putc
  3383 ;; This function uses a non-reentrant model
  3384 ;;
  3385                           psect	text991
  3386                           	file	"C:\Users\Administrator\Desktop\CODE1-ACE5\CODE1-FRAME WORK\CODE MPLAP\lcd.c"
  3387                           	line	162
  3388                           	global	__size_of_lcd_gotoxy
  3389  002E                     	__size_of_lcd_gotoxy	equ	__end_of_lcd_gotoxy-_lcd_gotoxy
  3390                           	
  3391  0AA6                     _lcd_gotoxy:	
  3392                           	opt	stack 3
  3393                           ; Regs used in _lcd_gotoxy: [wreg+status,2+status,0+pclath+cstack]
  3394                           ;lcd_gotoxy@col stored from wreg
  3395                           	line	165
  3396  0AA6  1283               	bcf	status, 5	;RP0=0, select bank0
  3397  0AA7  1303               	bcf	status, 6	;RP1=0, select bank0
  3398  0AA8  00A7               	movwf	(lcd_gotoxy@col)
  3399                           	
  3400  0AA9                     l5516:	
  3401                           ;lcd.c: 163: unsigned char address;
  3402                           ;lcd.c: 165: if(row!=0)
  3403  0AA9  0825               	movf	(lcd_gotoxy@row),w
  3404  0AAA  1D03               	skipz
  3405  0AAB  2AAD               	goto	u5410
  3406  0AAC  2AB2               	goto	l5520
  3407  0AAD                     u5410:
  3408                           	line	166
  3409                           	
  3410  0AAD                     l5518:	
  3411                           ;lcd.c: 166: address=0x40;
  3412  0AAD  3040               	movlw	(040h)
  3413  0AAE  00A6               	movwf	(??_lcd_gotoxy+0)+0
  3414  0AAF  0826               	movf	(??_lcd_gotoxy+0)+0,w
  3415  0AB0  00A8               	movwf	(lcd_gotoxy@address)
  3416  0AB1  2AB7               	goto	l1916
  3417                           	line	167
  3418                           	
  3419  0AB2                     l1915:	
  3420                           	line	168
  3421                           	
  3422  0AB2                     l5520:	
  3423                           ;lcd.c: 167: else
  3424                           ;lcd.c: 168: address=0;
  3425  0AB2  1003               	clrc
  3426  0AB3  3000               	movlw	0
  3427  0AB4  1803               	btfsc	status,0
  3428  0AB5  3001               	movlw	1
  3429  0AB6  00A8               	movwf	(lcd_gotoxy@address)
  3430                           	
  3431  0AB7                     l1916:	
  3432                           	line	170
  3433                           ;lcd.c: 170: address += col;
  3434  0AB7  0827               	movf	(lcd_gotoxy@col),w
  3435  0AB8  00A6               	movwf	(??_lcd_gotoxy+0)+0
  3436  0AB9  0826               	movf	(??_lcd_gotoxy+0)+0,w
  3437  0ABA  07A8               	addwf	(lcd_gotoxy@address),f
  3438                           	line	171
  3439                           	
  3440  0ABB                     l5522:	
  3441                           ;lcd.c: 171: lcd_put_byte(0,0x80|address);
  3442  0ABB  0828               	movf	(lcd_gotoxy@address),w
  3443  0ABC  3880               	iorlw	080h
  3444  0ABD  00A6               	movwf	(??_lcd_gotoxy+0)+0
  3445  0ABE  0826               	movf	(??_lcd_gotoxy+0)+0,w
  3446  0ABF  00A0               	movwf	(?_lcd_put_byte)
  3447  0AC0  3000               	movlw	(0)
  3448  0AC1  120A  158A  273E   	fcall	_lcd_put_byte
              120A  158A         
  3449                           	line	172
  3450                           ;lcd.c: 172: while(lcd_busy());
  3451  0AC6  2AC8               	goto	l5524
  3452                           	
  3453  0AC7                     l1918:	
  3454  0AC7  2AC8               	goto	l5524
  3455                           	
  3456  0AC8                     l1917:	
  3457                           	
  3458  0AC8                     l5524:	
  3459  0AC8  120A  158A  2304   	fcall	_lcd_busy
              120A  158A         
  3460  0ACD  3800               	iorlw	0
  3461  0ACE  1D03               	skipz
  3462  0ACF  2AD1               	goto	u5421
  3463  0AD0  2AD2               	goto	u5420
  3464  0AD1                     u5421:
  3465  0AD1  2AC8               	goto	l5524
  3466  0AD2                     u5420:
  3467  0AD2  2AD3               	goto	l1920
  3468                           	
  3469  0AD3                     l1919:	
  3470                           	line	173
  3471                           	
  3472  0AD3                     l1920:	
  3473  0AD3  0008               	return
  3474                           	opt stack 0
  3475                           GLOBAL	__end_of_lcd_gotoxy
  3476  0AD4                     	__end_of_lcd_gotoxy:
  3477 ;; =============== function _lcd_gotoxy ends ============
  3478                           
  3479                           	signat	_lcd_gotoxy,8312
  3480                           	global	_BH1750_read
  3481                           psect	text992,local,class=CODE,delta=2
  3482                           global __ptext992
  3483  0D7F                     __ptext992:
  3484                           
  3485 ;; *************** function _BH1750_read *****************
  3486 ;; Defined at:
  3487 ;;		line 193 in file "C:\Users\Administrator\Desktop\CODE1-ACE5\CODE1-FRAME WORK\CODE MPLAP\main.c"
  3488 ;; Parameters:    Size  Location     Type
  3489 ;;		None
  3490 ;; Auto vars:     Size  Location     Type
  3491 ;;  hb              1   50[BANK0 ] unsigned char 
  3492 ;;  lb              1   49[BANK0 ] unsigned char 
  3493 ;; Return value:  Size  Location     Type
  3494 ;;                  4  1002[COMMON] unsigned long 
  3495 ;; Registers used:
  3496 ;;		wreg, status,2, status,0, btemp+1, pclath, cstack
  3497 ;; Tracked objects:
  3498 ;;		On entry : 0/0
  3499 ;;		On exit  : 0/0
  3500 ;;		Unchanged: 0/0
  3501 ;; Data sizes:     COMMON   BANK0   BANK1   BANK3   BANK2
  3502 ;;      Params:         0       0       0       0       0
  3503 ;;      Locals:         0       2       0       0       0
  3504 ;;      Temps:          0       2       0       0       0
  3505 ;;      Totals:         0       4       0       0       0
  3506 ;;Total ram usage:        4 bytes
  3507 ;; Hardware stack levels used:    1
  3508 ;; Hardware stack levels required when called:    3
  3509 ;; This function calls:
  3510 ;;		_I2C_start
  3511 ;;		_I2C_write
  3512 ;;		_I2C_read
  3513 ;;		_I2C_stop
  3514 ;;		___awtoft
  3515 ;;		___ftdiv
  3516 ;; This function is called by:
  3517 ;;		_main
  3518 ;; This function uses a non-reentrant model
  3519 ;;
  3520                           psect	text992
  3521                           	file	"C:\Users\Administrator\Desktop\CODE1-ACE5\CODE1-FRAME WORK\CODE MPLAP\main.c"
  3522                           	line	193
  3523                           	global	__size_of_BH1750_read
  3524  0087                     	__size_of_BH1750_read	equ	__end_of_BH1750_read-_BH1750_read
  3525                           	
  3526  0D7F                     _BH1750_read:	
  3527                           	opt	stack 4
  3528                           ; Regs used in _BH1750_read: [wreg+status,2+status,0+btemp+1+pclath+cstack]
  3529                           	line	194
  3530                           	
  3531  0D7F                     l5500:	
  3532                           ;main.c: 194: unsigned char lb = 0;
  3533  0D7F  1003               	clrc
  3534  0D80  3000               	movlw	0
  3535  0D81  1803               	btfsc	status,0
  3536  0D82  3001               	movlw	1
  3537  0D83  1283               	bcf	status, 5	;RP0=0, select bank0
  3538  0D84  1303               	bcf	status, 6	;RP1=0, select bank0
  3539  0D85  00D1               	movwf	(BH1750_read@lb)
  3540                           	line	195
  3541                           ;main.c: 195: unsigned char hb = 0;
  3542  0D86  1003               	clrc
  3543  0D87  3000               	movlw	0
  3544  0D88  1803               	btfsc	status,0
  3545  0D89  3001               	movlw	1
  3546  0D8A  00D2               	movwf	(BH1750_read@hb)
  3547                           	line	196
  3548                           	
  3549  0D8B                     l5502:	
  3550                           ;main.c: 196: I2C_start();
  3551  0D8B  120A  158A  2238   	fcall	_I2C_start
              120A  158A         
  3552                           	line	197
  3553                           	
  3554  0D90                     l5504:	
  3555                           ;main.c: 197: I2C_write(0x47);
  3556  0D90  3047               	movlw	(047h)
  3557  0D91  120A  158A  2337   	fcall	_I2C_write
              120A  158A         
  3558                           	line	198
  3559                           	
  3560  0D96                     l5506:	
  3561                           ;main.c: 198: hb = I2C_read(1);
  3562  0D96  3001               	movlw	(01h)
  3563  0D97  120A  118A  27A3   	fcall	_I2C_read
              120A  158A         
  3564  0D9C  1283               	bcf	status, 5	;RP0=0, select bank0
  3565  0D9D  1303               	bcf	status, 6	;RP1=0, select bank0
  3566  0D9E  00CF               	movwf	(??_BH1750_read+0)+0
  3567  0D9F  084F               	movf	(??_BH1750_read+0)+0,w
  3568  0DA0  00D2               	movwf	(BH1750_read@hb)
  3569                           	line	199
  3570                           	
  3571  0DA1                     l5508:	
  3572                           ;main.c: 199: lb = I2C_read(0);
  3573  0DA1  3000               	movlw	(0)
  3574  0DA2  120A  118A  27A3   	fcall	_I2C_read
              120A  158A         
  3575  0DA7  1283               	bcf	status, 5	;RP0=0, select bank0
  3576  0DA8  1303               	bcf	status, 6	;RP1=0, select bank0
  3577  0DA9  00CF               	movwf	(??_BH1750_read+0)+0
  3578  0DAA  084F               	movf	(??_BH1750_read+0)+0,w
  3579  0DAB  00D1               	movwf	(BH1750_read@lb)
  3580                           	line	200
  3581                           	
  3582  0DAC                     l5510:	
  3583                           ;main.c: 200: I2C_stop();
  3584  0DAC  120A  158A  21EA   	fcall	_I2C_stop
              120A  158A         
  3585                           	line	201
  3586                           	
  3587  0DB1                     l5512:	
  3588                           ;main.c: 201: value =(hb<<8)+lb;
  3589  0DB1  1283               	bcf	status, 5	;RP0=0, select bank0
  3590  0DB2  1303               	bcf	status, 6	;RP1=0, select bank0
  3591  0DB3  0852               	movf	(BH1750_read@hb),w
  3592  0DB4  00CF               	movwf	(??_BH1750_read+0)+0
  3593  0DB5  01D0               	clrf	(??_BH1750_read+0)+0+1
  3594  0DB6  3008               	movlw	08h
  3595  0DB7  00FF               	movwf	btemp+1
  3596  0DB8                     u5405:
  3597  0DB8  1003               	clrc
  3598  0DB9  0DCF               	rlf	(??_BH1750_read+0)+0,f
  3599  0DBA  0DD0               	rlf	(??_BH1750_read+0)+1,f
  3600  0DBB  0BFF               	decfsz	btemp+1,f
  3601  0DBC  2DB8               	goto	u5405
  3602  0DBD  0851               	movf	(BH1750_read@lb),w
  3603  0DBE  074F               	addwf	0+(??_BH1750_read+0)+0,w
  3604  0DBF  1683               	bsf	status, 5	;RP0=1, select bank1
  3605  0DC0  1303               	bcf	status, 6	;RP1=0, select bank1
  3606  0DC1  00E1               	movwf	(_value)^080h
  3607  0DC2  3000               	movlw	0
  3608  0DC3  1803               	skipnc
  3609  0DC4  3001               	movlw	1
  3610  0DC5  1283               	bcf	status, 5	;RP0=0, select bank0
  3611  0DC6  1303               	bcf	status, 6	;RP1=0, select bank0
  3612  0DC7  0750               	addwf	1+(??_BH1750_read+0)+0,w
  3613  0DC8  1683               	bsf	status, 5	;RP0=1, select bank1
  3614  0DC9  1303               	bcf	status, 6	;RP1=0, select bank1
  3615  0DCA  00E2               	movwf	1+(_value)^080h
  3616                           	line	202
  3617                           	
  3618  0DCB                     l5514:	
  3619                           ;main.c: 202: value1=(float)value/1.2;
  3620  0DCB  309A               	movlw	0x9a
  3621  0DCC  1283               	bcf	status, 5	;RP0=0, select bank0
  3622  0DCD  1303               	bcf	status, 6	;RP1=0, select bank0
  3623  0DCE  00BF               	movwf	(?___ftdiv)
  3624  0DCF  3099               	movlw	0x99
  3625  0DD0  00C0               	movwf	(?___ftdiv+1)
  3626  0DD1  303F               	movlw	0x3f
  3627  0DD2  00C1               	movwf	(?___ftdiv+2)
  3628  0DD3  1683               	bsf	status, 5	;RP0=1, select bank1
  3629  0DD4  1303               	bcf	status, 6	;RP1=0, select bank1
  3630  0DD5  0862               	movf	(_value+1)^080h,w
  3631  0DD6  1283               	bcf	status, 5	;RP0=0, select bank0
  3632  0DD7  1303               	bcf	status, 6	;RP1=0, select bank0
  3633  0DD8  01BA               	clrf	(?___awtoft+1)
  3634  0DD9  07BA               	addwf	(?___awtoft+1)
  3635  0DDA  1683               	bsf	status, 5	;RP0=1, select bank1
  3636  0DDB  1303               	bcf	status, 6	;RP1=0, select bank1
  3637  0DDC  0861               	movf	(_value)^080h,w
  3638  0DDD  1283               	bcf	status, 5	;RP0=0, select bank0
  3639  0DDE  1303               	bcf	status, 6	;RP1=0, select bank0
  3640  0DDF  01B9               	clrf	(?___awtoft)
  3641  0DE0  07B9               	addwf	(?___awtoft)
  3642                           
  3643  0DE1  120A  158A  22D4   	fcall	___awtoft
              120A  158A         
  3644  0DE6  1283               	bcf	status, 5	;RP0=0, select bank0
  3645  0DE7  1303               	bcf	status, 6	;RP1=0, select bank0
  3646  0DE8  0839               	movf	(0+(?___awtoft)),w
  3647  0DE9  00C2               	movwf	0+(?___ftdiv)+03h
  3648  0DEA  083A               	movf	(1+(?___awtoft)),w
  3649  0DEB  00C3               	movwf	1+(?___ftdiv)+03h
  3650  0DEC  083B               	movf	(2+(?___awtoft)),w
  3651  0DED  00C4               	movwf	2+(?___ftdiv)+03h
  3652  0DEE  120A  118A  26DB   	fcall	___ftdiv
              120A  158A         
  3653  0DF3  1283               	bcf	status, 5	;RP0=0, select bank0
  3654  0DF4  1303               	bcf	status, 6	;RP1=0, select bank0
  3655  0DF5  083F               	movf	(0+(?___ftdiv)),w
  3656  0DF6  1683               	bsf	status, 5	;RP0=1, select bank1
  3657  0DF7  1303               	bcf	status, 6	;RP1=0, select bank1
  3658  0DF8  00BC               	movwf	(_value1)^080h
  3659  0DF9  1283               	bcf	status, 5	;RP0=0, select bank0
  3660  0DFA  1303               	bcf	status, 6	;RP1=0, select bank0
  3661  0DFB  0840               	movf	(1+(?___ftdiv)),w
  3662  0DFC  1683               	bsf	status, 5	;RP0=1, select bank1
  3663  0DFD  1303               	bcf	status, 6	;RP1=0, select bank1
  3664  0DFE  00BD               	movwf	(_value1+1)^080h
  3665  0DFF  1283               	bcf	status, 5	;RP0=0, select bank0
  3666  0E00  1303               	bcf	status, 6	;RP1=0, select bank0
  3667  0E01  0841               	movf	(2+(?___ftdiv)),w
  3668  0E02  1683               	bsf	status, 5	;RP0=1, select bank1
  3669  0E03  1303               	bcf	status, 6	;RP1=0, select bank1
  3670  0E04  00BE               	movwf	(_value1+2)^080h
  3671                           	line	203
  3672                           	
  3673  0E05                     l1003:	
  3674  0E05  0008               	return
  3675                           	opt stack 0
  3676                           GLOBAL	__end_of_BH1750_read
  3677  0E06                     	__end_of_BH1750_read:
  3678 ;; =============== function _BH1750_read ends ============
  3679                           
  3680                           	signat	_BH1750_read,92
  3681                           	global	_BH1750_write
  3682                           psect	text993,local,class=CODE,delta=2
  3683                           global __ptext993
  3684  09D3                     __ptext993:
  3685                           
  3686 ;; *************** function _BH1750_write *****************
  3687 ;; Defined at:
  3688 ;;		line 184 in file "C:\Users\Administrator\Desktop\CODE1-ACE5\CODE1-FRAME WORK\CODE MPLAP\main.c"
  3689 ;; Parameters:    Size  Location     Type
  3690 ;;		None
  3691 ;; Auto vars:     Size  Location     Type
  3692 ;;		None
  3693 ;; Return value:  Size  Location     Type
  3694 ;;		None               void
  3695 ;; Registers used:
  3696 ;;		wreg, status,2, status,0, pclath, cstack
  3697 ;; Tracked objects:
  3698 ;;		On entry : 0/0
  3699 ;;		On exit  : 0/0
  3700 ;;		Unchanged: 0/0
  3701 ;; Data sizes:     COMMON   BANK0   BANK1   BANK3   BANK2
  3702 ;;      Params:         0       2       0       0       0
  3703 ;;      Locals:         0       0       0       0       0
  3704 ;;      Temps:          0       0       0       0       0
  3705 ;;      Totals:         0       2       0       0       0
  3706 ;;Total ram usage:        2 bytes
  3707 ;; Hardware stack levels used:    1
  3708 ;; Hardware stack levels required when called:    3
  3709 ;; This function calls:
  3710 ;;		_I2C_start
  3711 ;;		_I2C_write
  3712 ;;		_I2C_stop
  3713 ;; This function is called by:
  3714 ;;		_main
  3715 ;;		_BH1750_init
  3716 ;; This function uses a non-reentrant model
  3717 ;;
  3718                           psect	text993
  3719                           	file	"C:\Users\Administrator\Desktop\CODE1-ACE5\CODE1-FRAME WORK\CODE MPLAP\main.c"
  3720                           	line	184
  3721                           	global	__size_of_BH1750_write
  3722  0017                     	__size_of_BH1750_write	equ	__end_of_BH1750_write-_BH1750_write
  3723                           	
  3724  09D3                     _BH1750_write:	
  3725                           	opt	stack 4
  3726                           ; Regs used in _BH1750_write: [wreg+status,2+status,0+pclath+cstack]
  3727                           	line	185
  3728                           	
  3729  09D3                     l5494:	
  3730                           ;main.c: 185: I2C_start();
  3731  09D3  120A  158A  2238   	fcall	_I2C_start
              120A  158A         
  3732                           	line	186
  3733                           	
  3734  09D8                     l5496:	
  3735                           ;main.c: 186: I2C_write(0x46);
  3736  09D8  3046               	movlw	(046h)
  3737  09D9  120A  158A  2337   	fcall	_I2C_write
              120A  158A         
  3738                           	line	187
  3739                           	
  3740  09DE                     l5498:	
  3741                           ;main.c: 187: I2C_write(0x10);
  3742  09DE  3010               	movlw	(010h)
  3743  09DF  120A  158A  2337   	fcall	_I2C_write
              120A  158A         
  3744                           	line	188
  3745                           ;main.c: 188: I2C_stop();
  3746  09E4  120A  158A  21EA   	fcall	_I2C_stop
              120A  158A         
  3747                           	line	189
  3748                           	
  3749  09E9                     l1000:	
  3750  09E9  0008               	return
  3751                           	opt stack 0
  3752                           GLOBAL	__end_of_BH1750_write
  3753  09EA                     	__end_of_BH1750_write:
  3754 ;; =============== function _BH1750_write ends ============
  3755                           
  3756                           	signat	_BH1750_write,88
  3757                           	global	___awtoft
  3758                           psect	text994,local,class=CODE,delta=2
  3759                           global __ptext994
  3760  0AD4                     __ptext994:
  3761                           
  3762 ;; *************** function ___awtoft *****************
  3763 ;; Defined at:
  3764 ;;		line 33 in file "C:\Program Files (x86)\HI-TECH Software\PICC\9.80\sources\awtoft.c"
  3765 ;; Parameters:    Size  Location     Type
  3766 ;;  c               2   25[BANK0 ] int 
  3767 ;; Auto vars:     Size  Location     Type
  3768 ;;  sign            1   30[BANK0 ] unsigned char 
  3769 ;; Return value:  Size  Location     Type
  3770 ;;                  3   25[BANK0 ] float 
  3771 ;; Registers used:
  3772 ;;		wreg, status,2, status,0, pclath, cstack
  3773 ;; Tracked objects:
  3774 ;;		On entry : 0/0
  3775 ;;		On exit  : 0/0
  3776 ;;		Unchanged: 0/0
  3777 ;; Data sizes:     COMMON   BANK0   BANK1   BANK3   BANK2
  3778 ;;      Params:         0       3       0       0       0
  3779 ;;      Locals:         0       1       0       0       0
  3780 ;;      Temps:          0       2       0       0       0
  3781 ;;      Totals:         0       6       0       0       0
  3782 ;;Total ram usage:        6 bytes
  3783 ;; Hardware stack levels used:    1
  3784 ;; Hardware stack levels required when called:    2
  3785 ;; This function calls:
  3786 ;;		___ftpack
  3787 ;; This function is called by:
  3788 ;;		_BH1750_read
  3789 ;;		_xu_ly_lux
  3790 ;; This function uses a non-reentrant model
  3791 ;;
  3792                           psect	text994
  3793                           	file	"C:\Program Files (x86)\HI-TECH Software\PICC\9.80\sources\awtoft.c"
  3794                           	line	33
  3795                           	global	__size_of___awtoft
  3796  0030                     	__size_of___awtoft	equ	__end_of___awtoft-___awtoft
  3797                           	
  3798  0AD4                     ___awtoft:	
  3799                           	opt	stack 4
  3800                           ; Regs used in ___awtoft: [wreg+status,2+status,0+pclath+cstack]
  3801                           	line	36
  3802                           	
  3803  0AD4                     l5484:	
  3804  0AD4  1003               	clrc
  3805  0AD5  3000               	movlw	0
  3806  0AD6  1803               	btfsc	status,0
  3807  0AD7  3001               	movlw	1
  3808  0AD8  1283               	bcf	status, 5	;RP0=0, select bank0
  3809  0AD9  1303               	bcf	status, 6	;RP1=0, select bank0
  3810  0ADA  00BE               	movwf	(___awtoft@sign)
  3811                           	line	37
  3812                           	
  3813  0ADB                     l5486:	
  3814  0ADB  1FBA               	btfss	(___awtoft@c+1),7
  3815  0ADC  2ADE               	goto	u5391
  3816  0ADD  2ADF               	goto	u5390
  3817  0ADE                     u5391:
  3818  0ADE  2AE8               	goto	l5490
  3819  0ADF                     u5390:
  3820                           	line	38
  3821                           	
  3822  0ADF                     l5488:	
  3823  0ADF  09B9               	comf	(___awtoft@c),f
  3824  0AE0  09BA               	comf	(___awtoft@c+1),f
  3825  0AE1  0AB9               	incf	(___awtoft@c),f
  3826  0AE2  1903               	skipnz
  3827  0AE3  0ABA               	incf	(___awtoft@c+1),f
  3828                           	line	39
  3829  0AE4  01BE               	clrf	(___awtoft@sign)
  3830  0AE5  1403               	bsf	status,0
  3831  0AE6  0DBE               	rlf	(___awtoft@sign),f
  3832  0AE7  2AE8               	goto	l5490
  3833                           	line	40
  3834                           	
  3835  0AE8                     l2076:	
  3836                           	line	41
  3837                           	
  3838  0AE8                     l5490:	
  3839  0AE8  0839               	movf	(___awtoft@c),w
  3840  0AE9  00A0               	movwf	(?___ftpack)
  3841  0AEA  083A               	movf	(___awtoft@c+1),w
  3842  0AEB  00A1               	movwf	(?___ftpack+1)
  3843  0AEC  01A2               	clrf	(?___ftpack+2)
  3844  0AED  308E               	movlw	(08Eh)
  3845  0AEE  00BC               	movwf	(??___awtoft+0)+0
  3846  0AEF  083C               	movf	(??___awtoft+0)+0,w
  3847  0AF0  00A3               	movwf	0+(?___ftpack)+03h
  3848  0AF1  083E               	movf	(___awtoft@sign),w
  3849  0AF2  00BD               	movwf	(??___awtoft+1)+0
  3850  0AF3  083D               	movf	(??___awtoft+1)+0,w
  3851  0AF4  00A4               	movwf	0+(?___ftpack)+04h
  3852  0AF5  120A  158A  2502   	fcall	___ftpack
              120A  158A         
  3853  0AFA  1283               	bcf	status, 5	;RP0=0, select bank0
  3854  0AFB  1303               	bcf	status, 6	;RP1=0, select bank0
  3855  0AFC  0820               	movf	(0+(?___ftpack)),w
  3856  0AFD  00B9               	movwf	(?___awtoft)
  3857  0AFE  0821               	movf	(1+(?___ftpack)),w
  3858  0AFF  00BA               	movwf	(?___awtoft+1)
  3859  0B00  0822               	movf	(2+(?___ftpack)),w
  3860  0B01  00BB               	movwf	(?___awtoft+2)
  3861  0B02  2B03               	goto	l2077
  3862                           	
  3863  0B03                     l5492:	
  3864                           	line	42
  3865                           	
  3866  0B03                     l2077:	
  3867  0B03  0008               	return
  3868                           	opt stack 0
  3869                           GLOBAL	__end_of___awtoft
  3870  0B04                     	__end_of___awtoft:
  3871 ;; =============== function ___awtoft ends ============
  3872                           
  3873                           	signat	___awtoft,4219
  3874                           	global	___ftmul
  3875                           psect	text995,local,class=CODE,delta=2
  3876                           global __ptext995
  3877  05ED                     __ptext995:
  3878                           
  3879 ;; *************** function ___ftmul *****************
  3880 ;; Defined at:
  3881 ;;		line 52 in file "C:\Program Files (x86)\HI-TECH Software\PICC\9.80\sources\ftmul.c"
  3882 ;; Parameters:    Size  Location     Type
  3883 ;;  f1              3   44[BANK0 ] float 
  3884 ;;  f2              3   47[BANK0 ] float 
  3885 ;; Auto vars:     Size  Location     Type
  3886 ;;  f3_as_produc    3   55[BANK0 ] unsigned um
  3887 ;;  sign            1   59[BANK0 ] unsigned char 
  3888 ;;  cntr            1   58[BANK0 ] unsigned char 
  3889 ;;  exp             1   54[BANK0 ] unsigned char 
  3890 ;; Return value:  Size  Location     Type
  3891 ;;                  3   44[BANK0 ] float 
  3892 ;; Registers used:
  3893 ;;		wreg, status,2, status,0, pclath, cstack
  3894 ;; Tracked objects:
  3895 ;;		On entry : 0/0
  3896 ;;		On exit  : 0/0
  3897 ;;		Unchanged: 0/0
  3898 ;; Data sizes:     COMMON   BANK0   BANK1   BANK3   BANK2
  3899 ;;      Params:         0       6       0       0       0
  3900 ;;      Locals:         0       6       0       0       0
  3901 ;;      Temps:          0       4       0       0       0
  3902 ;;      Totals:         0      16       0       0       0
  3903 ;;Total ram usage:       16 bytes
  3904 ;; Hardware stack levels used:    1
  3905 ;; Hardware stack levels required when called:    2
  3906 ;; This function calls:
  3907 ;;		___ftpack
  3908 ;; This function is called by:
  3909 ;;		_xu_ly_lux
  3910 ;;		_send_lux
  3911 ;; This function uses a non-reentrant model
  3912 ;;
  3913                           psect	text995
  3914                           	file	"C:\Program Files (x86)\HI-TECH Software\PICC\9.80\sources\ftmul.c"
  3915                           	line	52
  3916                           	global	__size_of___ftmul
  3917  00EE                     	__size_of___ftmul	equ	__end_of___ftmul-___ftmul
  3918                           	
  3919  05ED                     ___ftmul:	
  3920                           	opt	stack 4
  3921                           ; Regs used in ___ftmul: [wreg+status,2+status,0+pclath+cstack]
  3922                           	line	56
  3923                           	
  3924  05ED                     l5434:	
  3925  05ED  1283               	bcf	status, 5	;RP0=0, select bank0
  3926  05EE  1303               	bcf	status, 6	;RP1=0, select bank0
  3927  05EF  084C               	movf	(___ftmul@f1),w
  3928  05F0  00D2               	movwf	((??___ftmul+0)+0)
  3929  05F1  084D               	movf	(___ftmul@f1+1),w
  3930  05F2  00D3               	movwf	((??___ftmul+0)+0+1)
  3931  05F3  084E               	movf	(___ftmul@f1+2),w
  3932  05F4  00D4               	movwf	((??___ftmul+0)+0+2)
  3933  05F5  1003               	clrc
  3934  05F6  0D53               	rlf	(??___ftmul+0)+1,w
  3935  05F7  0D54               	rlf	(??___ftmul+0)+2,w
  3936  05F8  00D5               	movwf	(??___ftmul+3)+0
  3937  05F9  0855               	movf	(??___ftmul+3)+0,w
  3938  05FA  00D6               	movwf	(___ftmul@exp)
  3939  05FB  08D6               	movf	((___ftmul@exp)),f
  3940  05FC  1D03               	skipz
  3941  05FD  2DFF               	goto	u5251
  3942  05FE  2E00               	goto	u5250
  3943  05FF                     u5251:
  3944  05FF  2E08               	goto	l5440
  3945  0600                     u5250:
  3946                           	line	57
  3947                           	
  3948  0600                     l5436:	
  3949  0600  3000               	movlw	0x0
  3950  0601  00CC               	movwf	(?___ftmul)
  3951  0602  3000               	movlw	0x0
  3952  0603  00CD               	movwf	(?___ftmul+1)
  3953  0604  3000               	movlw	0x0
  3954  0605  00CE               	movwf	(?___ftmul+2)
  3955  0606  2EDA               	goto	l2039
  3956                           	
  3957  0607                     l5438:	
  3958  0607  2EDA               	goto	l2039
  3959                           	
  3960  0608                     l2038:	
  3961                           	line	58
  3962                           	
  3963  0608                     l5440:	
  3964  0608  084F               	movf	(___ftmul@f2),w
  3965  0609  00D2               	movwf	((??___ftmul+0)+0)
  3966  060A  0850               	movf	(___ftmul@f2+1),w
  3967  060B  00D3               	movwf	((??___ftmul+0)+0+1)
  3968  060C  0851               	movf	(___ftmul@f2+2),w
  3969  060D  00D4               	movwf	((??___ftmul+0)+0+2)
  3970  060E  1003               	clrc
  3971  060F  0D53               	rlf	(??___ftmul+0)+1,w
  3972  0610  0D54               	rlf	(??___ftmul+0)+2,w
  3973  0611  00D5               	movwf	(??___ftmul+3)+0
  3974  0612  0855               	movf	(??___ftmul+3)+0,w
  3975  0613  00DB               	movwf	(___ftmul@sign)
  3976  0614  08DB               	movf	((___ftmul@sign)),f
  3977  0615  1D03               	skipz
  3978  0616  2E18               	goto	u5261
  3979  0617  2E19               	goto	u5260
  3980  0618                     u5261:
  3981  0618  2E21               	goto	l5446
  3982  0619                     u5260:
  3983                           	line	59
  3984                           	
  3985  0619                     l5442:	
  3986  0619  3000               	movlw	0x0
  3987  061A  00CC               	movwf	(?___ftmul)
  3988  061B  3000               	movlw	0x0
  3989  061C  00CD               	movwf	(?___ftmul+1)
  3990  061D  3000               	movlw	0x0
  3991  061E  00CE               	movwf	(?___ftmul+2)
  3992  061F  2EDA               	goto	l2039
  3993                           	
  3994  0620                     l5444:	
  3995  0620  2EDA               	goto	l2039
  3996                           	
  3997  0621                     l2040:	
  3998                           	line	60
  3999                           	
  4000  0621                     l5446:	
  4001  0621  085B               	movf	(___ftmul@sign),w
  4002  0622  3E7B               	addlw	07Bh
  4003  0623  00D2               	movwf	(??___ftmul+0)+0
  4004  0624  0852               	movf	(??___ftmul+0)+0,w
  4005  0625  07D6               	addwf	(___ftmul@exp),f
  4006                           	line	61
  4007  0626  084C               	movf	(___ftmul@f1),w
  4008  0627  00D2               	movwf	((??___ftmul+0)+0)
  4009  0628  084D               	movf	(___ftmul@f1+1),w
  4010  0629  00D3               	movwf	((??___ftmul+0)+0+1)
  4011  062A  084E               	movf	(___ftmul@f1+2),w
  4012  062B  00D4               	movwf	((??___ftmul+0)+0+2)
  4013  062C  3010               	movlw	010h
  4014  062D                     u5275:
  4015  062D  1003               	clrc
  4016  062E  0CD4               	rrf	(??___ftmul+0)+2,f
  4017  062F  0CD3               	rrf	(??___ftmul+0)+1,f
  4018  0630  0CD2               	rrf	(??___ftmul+0)+0,f
  4019  0631                     u5270:
  4020  0631  3EFF               	addlw	-1
  4021  0632  1D03               	skipz
  4022  0633  2E2D               	goto	u5275
  4023  0634  0852               	movf	0+(??___ftmul+0)+0,w
  4024  0635  00D5               	movwf	(??___ftmul+3)+0
  4025  0636  0855               	movf	(??___ftmul+3)+0,w
  4026  0637  00DB               	movwf	(___ftmul@sign)
  4027                           	line	62
  4028  0638  084F               	movf	(___ftmul@f2),w
  4029  0639  00D2               	movwf	((??___ftmul+0)+0)
  4030  063A  0850               	movf	(___ftmul@f2+1),w
  4031  063B  00D3               	movwf	((??___ftmul+0)+0+1)
  4032  063C  0851               	movf	(___ftmul@f2+2),w
  4033  063D  00D4               	movwf	((??___ftmul+0)+0+2)
  4034  063E  3010               	movlw	010h
  4035  063F                     u5285:
  4036  063F  1003               	clrc
  4037  0640  0CD4               	rrf	(??___ftmul+0)+2,f
  4038  0641  0CD3               	rrf	(??___ftmul+0)+1,f
  4039  0642  0CD2               	rrf	(??___ftmul+0)+0,f
  4040  0643                     u5280:
  4041  0643  3EFF               	addlw	-1
  4042  0644  1D03               	skipz
  4043  0645  2E3F               	goto	u5285
  4044  0646  0852               	movf	0+(??___ftmul+0)+0,w
  4045  0647  00D5               	movwf	(??___ftmul+3)+0
  4046  0648  0855               	movf	(??___ftmul+3)+0,w
  4047  0649  06DB               	xorwf	(___ftmul@sign),f
  4048                           	line	63
  4049  064A  3080               	movlw	(080h)
  4050  064B  00D2               	movwf	(??___ftmul+0)+0
  4051  064C  0852               	movf	(??___ftmul+0)+0,w
  4052  064D  05DB               	andwf	(___ftmul@sign),f
  4053                           	line	64
  4054                           	
  4055  064E                     l5448:	
  4056  064E  17CD               	bsf	(___ftmul@f1)+(15/8),(15)&7
  4057                           	line	66
  4058                           	
  4059  064F                     l5450:	
  4060  064F  17D0               	bsf	(___ftmul@f2)+(15/8),(15)&7
  4061                           	line	67
  4062                           	
  4063  0650                     l5452:	
  4064  0650  30FF               	movlw	0FFh
  4065  0651  05CF               	andwf	(___ftmul@f2),f
  4066  0652  30FF               	movlw	0FFh
  4067  0653  05D0               	andwf	(___ftmul@f2+1),f
  4068  0654  3000               	movlw	0
  4069  0655  05D1               	andwf	(___ftmul@f2+2),f
  4070                           	line	68
  4071                           	
  4072  0656                     l5454:	
  4073  0656  3000               	movlw	0
  4074  0657  00D7               	movwf	(___ftmul@f3_as_product)
  4075  0658  3000               	movlw	0
  4076  0659  00D8               	movwf	(___ftmul@f3_as_product+1)
  4077  065A  3000               	movlw	0
  4078  065B  00D9               	movwf	(___ftmul@f3_as_product+2)
  4079                           	line	69
  4080                           	
  4081  065C                     l5456:	
  4082  065C  3007               	movlw	(07h)
  4083  065D  00D2               	movwf	(??___ftmul+0)+0
  4084  065E  0852               	movf	(??___ftmul+0)+0,w
  4085  065F  00DA               	movwf	(___ftmul@cntr)
  4086  0660  2E61               	goto	l5458
  4087                           	line	70
  4088                           	
  4089  0661                     l2041:	
  4090                           	line	71
  4091                           	
  4092  0661                     l5458:	
  4093  0661  1C4C               	btfss	(___ftmul@f1),(0)&7
  4094  0662  2E64               	goto	u5291
  4095  0663  2E65               	goto	u5290
  4096  0664                     u5291:
  4097  0664  2E76               	goto	l5462
  4098  0665                     u5290:
  4099                           	line	72
  4100                           	
  4101  0665                     l5460:	
  4102  0665  084F               	movf	(___ftmul@f2),w
  4103  0666  07D7               	addwf	(___ftmul@f3_as_product),f
  4104  0667  0850               	movf	(___ftmul@f2+1),w
  4105  0668  1103               	clrz
  4106  0669  1803               	skipnc
  4107  066A  0A50               	incf	(___ftmul@f2+1),w
  4108  066B  1903               	skipnz
  4109  066C  2E6E               	goto	u5301
  4110  066D  07D8               	addwf	(___ftmul@f3_as_product+1),f
  4111  066E                     u5301:
  4112  066E  0851               	movf	(___ftmul@f2+2),w
  4113  066F  1103               	clrz
  4114  0670  1803               	skipnc
  4115  0671  0A51               	incf	(___ftmul@f2+2),w
  4116  0672  1903               	skipnz
  4117  0673  2E75               	goto	u5302
  4118  0674  07D9               	addwf	(___ftmul@f3_as_product+2),f
  4119  0675                     u5302:
  4120                           
  4121  0675  2E76               	goto	l5462
  4122                           	
  4123  0676                     l2042:	
  4124                           	line	73
  4125                           	
  4126  0676                     l5462:	
  4127  0676  3001               	movlw	01h
  4128  0677                     u5315:
  4129  0677  1003               	clrc
  4130  0678  0CCE               	rrf	(___ftmul@f1+2),f
  4131  0679  0CCD               	rrf	(___ftmul@f1+1),f
  4132  067A  0CCC               	rrf	(___ftmul@f1),f
  4133  067B  3EFF               	addlw	-1
  4134  067C  1D03               	skipz
  4135  067D  2E77               	goto	u5315
  4136                           
  4137                           	line	74
  4138                           	
  4139  067E                     l5464:	
  4140  067E  3001               	movlw	01h
  4141  067F                     u5325:
  4142  067F  1003               	clrc
  4143  0680  0DCF               	rlf	(___ftmul@f2),f
  4144  0681  0DD0               	rlf	(___ftmul@f2+1),f
  4145  0682  0DD1               	rlf	(___ftmul@f2+2),f
  4146  0683  3EFF               	addlw	-1
  4147  0684  1D03               	skipz
  4148  0685  2E7F               	goto	u5325
  4149                           	line	75
  4150                           	
  4151  0686                     l5466:	
  4152  0686  3001               	movlw	low(01h)
  4153  0687  02DA               	subwf	(___ftmul@cntr),f
  4154  0688  1D03               	btfss	status,2
  4155  0689  2E8B               	goto	u5331
  4156  068A  2E8C               	goto	u5330
  4157  068B                     u5331:
  4158  068B  2E61               	goto	l5458
  4159  068C                     u5330:
  4160  068C  2E8D               	goto	l5468
  4161                           	
  4162  068D                     l2043:	
  4163                           	line	76
  4164                           	
  4165  068D                     l5468:	
  4166  068D  3009               	movlw	(09h)
  4167  068E  00D2               	movwf	(??___ftmul+0)+0
  4168  068F  0852               	movf	(??___ftmul+0)+0,w
  4169  0690  00DA               	movwf	(___ftmul@cntr)
  4170  0691  2E92               	goto	l5470
  4171                           	line	77
  4172                           	
  4173  0692                     l2044:	
  4174                           	line	78
  4175                           	
  4176  0692                     l5470:	
  4177  0692  1C4C               	btfss	(___ftmul@f1),(0)&7
  4178  0693  2E95               	goto	u5341
  4179  0694  2E96               	goto	u5340
  4180  0695                     u5341:
  4181  0695  2EA7               	goto	l5474
  4182  0696                     u5340:
  4183                           	line	79
  4184                           	
  4185  0696                     l5472:	
  4186  0696  084F               	movf	(___ftmul@f2),w
  4187  0697  07D7               	addwf	(___ftmul@f3_as_product),f
  4188  0698  0850               	movf	(___ftmul@f2+1),w
  4189  0699  1103               	clrz
  4190  069A  1803               	skipnc
  4191  069B  0A50               	incf	(___ftmul@f2+1),w
  4192  069C  1903               	skipnz
  4193  069D  2E9F               	goto	u5351
  4194  069E  07D8               	addwf	(___ftmul@f3_as_product+1),f
  4195  069F                     u5351:
  4196  069F  0851               	movf	(___ftmul@f2+2),w
  4197  06A0  1103               	clrz
  4198  06A1  1803               	skipnc
  4199  06A2  0A51               	incf	(___ftmul@f2+2),w
  4200  06A3  1903               	skipnz
  4201  06A4  2EA6               	goto	u5352
  4202  06A5  07D9               	addwf	(___ftmul@f3_as_product+2),f
  4203  06A6                     u5352:
  4204                           
  4205  06A6  2EA7               	goto	l5474
  4206                           	
  4207  06A7                     l2045:	
  4208                           	line	80
  4209                           	
  4210  06A7                     l5474:	
  4211  06A7  3001               	movlw	01h
  4212  06A8                     u5365:
  4213  06A8  1003               	clrc
  4214  06A9  0CCE               	rrf	(___ftmul@f1+2),f
  4215  06AA  0CCD               	rrf	(___ftmul@f1+1),f
  4216  06AB  0CCC               	rrf	(___ftmul@f1),f
  4217  06AC  3EFF               	addlw	-1
  4218  06AD  1D03               	skipz
  4219  06AE  2EA8               	goto	u5365
  4220                           
  4221                           	line	81
  4222                           	
  4223  06AF                     l5476:	
  4224  06AF  3001               	movlw	01h
  4225  06B0                     u5375:
  4226  06B0  1003               	clrc
  4227  06B1  0CD9               	rrf	(___ftmul@f3_as_product+2),f
  4228  06B2  0CD8               	rrf	(___ftmul@f3_as_product+1),f
  4229  06B3  0CD7               	rrf	(___ftmul@f3_as_product),f
  4230  06B4  3EFF               	addlw	-1
  4231  06B5  1D03               	skipz
  4232  06B6  2EB0               	goto	u5375
  4233                           
  4234                           	line	82
  4235                           	
  4236  06B7                     l5478:	
  4237  06B7  3001               	movlw	low(01h)
  4238  06B8  02DA               	subwf	(___ftmul@cntr),f
  4239  06B9  1D03               	btfss	status,2
  4240  06BA  2EBC               	goto	u5381
  4241  06BB  2EBD               	goto	u5380
  4242  06BC                     u5381:
  4243  06BC  2E92               	goto	l5470
  4244  06BD                     u5380:
  4245  06BD  2EBE               	goto	l5480
  4246                           	
  4247  06BE                     l2046:	
  4248                           	line	83
  4249                           	
  4250  06BE                     l5480:	
  4251  06BE  0857               	movf	(___ftmul@f3_as_product),w
  4252  06BF  00A0               	movwf	(?___ftpack)
  4253  06C0  0858               	movf	(___ftmul@f3_as_product+1),w
  4254  06C1  00A1               	movwf	(?___ftpack+1)
  4255  06C2  0859               	movf	(___ftmul@f3_as_product+2),w
  4256  06C3  00A2               	movwf	(?___ftpack+2)
  4257  06C4  0856               	movf	(___ftmul@exp),w
  4258  06C5  00D2               	movwf	(??___ftmul+0)+0
  4259  06C6  0852               	movf	(??___ftmul+0)+0,w
  4260  06C7  00A3               	movwf	0+(?___ftpack)+03h
  4261  06C8  085B               	movf	(___ftmul@sign),w
  4262  06C9  00D3               	movwf	(??___ftmul+1)+0
  4263  06CA  0853               	movf	(??___ftmul+1)+0,w
  4264  06CB  00A4               	movwf	0+(?___ftpack)+04h
  4265  06CC  120A  158A  2502   	fcall	___ftpack
              120A  118A         
  4266  06D1  1283               	bcf	status, 5	;RP0=0, select bank0
  4267  06D2  1303               	bcf	status, 6	;RP1=0, select bank0
  4268  06D3  0820               	movf	(0+(?___ftpack)),w
  4269  06D4  00CC               	movwf	(?___ftmul)
  4270  06D5  0821               	movf	(1+(?___ftpack)),w
  4271  06D6  00CD               	movwf	(?___ftmul+1)
  4272  06D7  0822               	movf	(2+(?___ftpack)),w
  4273  06D8  00CE               	movwf	(?___ftmul+2)
  4274  06D9  2EDA               	goto	l2039
  4275                           	
  4276  06DA                     l5482:	
  4277                           	line	84
  4278                           	
  4279  06DA                     l2039:	
  4280  06DA  0008               	return
  4281                           	opt stack 0
  4282                           GLOBAL	__end_of___ftmul
  4283  06DB                     	__end_of___ftmul:
  4284 ;; =============== function ___ftmul ends ============
  4285                           
  4286                           	signat	___ftmul,8315
  4287                           	global	___ftdiv
  4288                           psect	text996,local,class=CODE,delta=2
  4289                           global __ptext996
  4290  06DB                     __ptext996:
  4291                           
  4292 ;; *************** function ___ftdiv *****************
  4293 ;; Defined at:
  4294 ;;		line 50 in file "C:\Program Files (x86)\HI-TECH Software\PICC\9.80\sources\ftdiv.c"
  4295 ;; Parameters:    Size  Location     Type
  4296 ;;  f2              3   31[BANK0 ] float 
  4297 ;;  f1              3   34[BANK0 ] float 
  4298 ;; Auto vars:     Size  Location     Type
  4299 ;;  f3              3   42[BANK0 ] float 
  4300 ;;  sign            1   46[BANK0 ] unsigned char 
  4301 ;;  exp             1   45[BANK0 ] unsigned char 
  4302 ;;  cntr            1   41[BANK0 ] unsigned char 
  4303 ;; Return value:  Size  Location     Type
  4304 ;;                  3   31[BANK0 ] float 
  4305 ;; Registers used:
  4306 ;;		wreg, status,2, status,0, pclath, cstack
  4307 ;; Tracked objects:
  4308 ;;		On entry : 0/0
  4309 ;;		On exit  : 0/0
  4310 ;;		Unchanged: 0/0
  4311 ;; Data sizes:     COMMON   BANK0   BANK1   BANK3   BANK2
  4312 ;;      Params:         0       6       0       0       0
  4313 ;;      Locals:         0       6       0       0       0
  4314 ;;      Temps:          0       4       0       0       0
  4315 ;;      Totals:         0      16       0       0       0
  4316 ;;Total ram usage:       16 bytes
  4317 ;; Hardware stack levels used:    1
  4318 ;; Hardware stack levels required when called:    2
  4319 ;; This function calls:
  4320 ;;		___ftpack
  4321 ;; This function is called by:
  4322 ;;		_BH1750_read
  4323 ;;		_xu_ly_lux
  4324 ;; This function uses a non-reentrant model
  4325 ;;
  4326                           psect	text996
  4327                           	file	"C:\Program Files (x86)\HI-TECH Software\PICC\9.80\sources\ftdiv.c"
  4328                           	line	50
  4329                           	global	__size_of___ftdiv
  4330  00C8                     	__size_of___ftdiv	equ	__end_of___ftdiv-___ftdiv
  4331                           	
  4332  06DB                     ___ftdiv:	
  4333                           	opt	stack 4
  4334                           ; Regs used in ___ftdiv: [wreg+status,2+status,0+pclath+cstack]
  4335                           	line	55
  4336                           	
  4337  06DB                     l5392:	
  4338  06DB  1283               	bcf	status, 5	;RP0=0, select bank0
  4339  06DC  1303               	bcf	status, 6	;RP1=0, select bank0
  4340  06DD  0842               	movf	(___ftdiv@f1),w
  4341  06DE  00C5               	movwf	((??___ftdiv+0)+0)
  4342  06DF  0843               	movf	(___ftdiv@f1+1),w
  4343  06E0  00C6               	movwf	((??___ftdiv+0)+0+1)
  4344  06E1  0844               	movf	(___ftdiv@f1+2),w
  4345  06E2  00C7               	movwf	((??___ftdiv+0)+0+2)
  4346  06E3  1003               	clrc
  4347  06E4  0D46               	rlf	(??___ftdiv+0)+1,w
  4348  06E5  0D47               	rlf	(??___ftdiv+0)+2,w
  4349  06E6  00C8               	movwf	(??___ftdiv+3)+0
  4350  06E7  0848               	movf	(??___ftdiv+3)+0,w
  4351  06E8  00CD               	movwf	(___ftdiv@exp)
  4352  06E9  08CD               	movf	((___ftdiv@exp)),f
  4353  06EA  1D03               	skipz
  4354  06EB  2EED               	goto	u5171
  4355  06EC  2EEE               	goto	u5170
  4356  06ED                     u5171:
  4357  06ED  2EF6               	goto	l5398
  4358  06EE                     u5170:
  4359                           	line	56
  4360                           	
  4361  06EE                     l5394:	
  4362  06EE  3000               	movlw	0x0
  4363  06EF  00BF               	movwf	(?___ftdiv)
  4364  06F0  3000               	movlw	0x0
  4365  06F1  00C0               	movwf	(?___ftdiv+1)
  4366  06F2  3000               	movlw	0x0
  4367  06F3  00C1               	movwf	(?___ftdiv+2)
  4368  06F4  2FA2               	goto	l2029
  4369                           	
  4370  06F5                     l5396:	
  4371  06F5  2FA2               	goto	l2029
  4372                           	
  4373  06F6                     l2028:	
  4374                           	line	57
  4375                           	
  4376  06F6                     l5398:	
  4377  06F6  083F               	movf	(___ftdiv@f2),w
  4378  06F7  00C5               	movwf	((??___ftdiv+0)+0)
  4379  06F8  0840               	movf	(___ftdiv@f2+1),w
  4380  06F9  00C6               	movwf	((??___ftdiv+0)+0+1)
  4381  06FA  0841               	movf	(___ftdiv@f2+2),w
  4382  06FB  00C7               	movwf	((??___ftdiv+0)+0+2)
  4383  06FC  1003               	clrc
  4384  06FD  0D46               	rlf	(??___ftdiv+0)+1,w
  4385  06FE  0D47               	rlf	(??___ftdiv+0)+2,w
  4386  06FF  00C8               	movwf	(??___ftdiv+3)+0
  4387  0700  0848               	movf	(??___ftdiv+3)+0,w
  4388  0701  00CE               	movwf	(___ftdiv@sign)
  4389  0702  08CE               	movf	((___ftdiv@sign)),f
  4390  0703  1D03               	skipz
  4391  0704  2F06               	goto	u5181
  4392  0705  2F07               	goto	u5180
  4393  0706                     u5181:
  4394  0706  2F0F               	goto	l5404
  4395  0707                     u5180:
  4396                           	line	58
  4397                           	
  4398  0707                     l5400:	
  4399  0707  3000               	movlw	0x0
  4400  0708  00BF               	movwf	(?___ftdiv)
  4401  0709  3000               	movlw	0x0
  4402  070A  00C0               	movwf	(?___ftdiv+1)
  4403  070B  3000               	movlw	0x0
  4404  070C  00C1               	movwf	(?___ftdiv+2)
  4405  070D  2FA2               	goto	l2029
  4406                           	
  4407  070E                     l5402:	
  4408  070E  2FA2               	goto	l2029
  4409                           	
  4410  070F                     l2030:	
  4411                           	line	59
  4412                           	
  4413  070F                     l5404:	
  4414  070F  3000               	movlw	0
  4415  0710  00CA               	movwf	(___ftdiv@f3)
  4416  0711  3000               	movlw	0
  4417  0712  00CB               	movwf	(___ftdiv@f3+1)
  4418  0713  3000               	movlw	0
  4419  0714  00CC               	movwf	(___ftdiv@f3+2)
  4420                           	line	60
  4421                           	
  4422  0715                     l5406:	
  4423  0715  3089               	movlw	(089h)
  4424  0716  074E               	addwf	(___ftdiv@sign),w
  4425  0717  00C5               	movwf	(??___ftdiv+0)+0
  4426  0718  0845               	movf	0+(??___ftdiv+0)+0,w
  4427  0719  02CD               	subwf	(___ftdiv@exp),f
  4428                           	line	61
  4429                           	
  4430  071A                     l5408:	
  4431  071A  0842               	movf	(___ftdiv@f1),w
  4432  071B  00C5               	movwf	((??___ftdiv+0)+0)
  4433  071C  0843               	movf	(___ftdiv@f1+1),w
  4434  071D  00C6               	movwf	((??___ftdiv+0)+0+1)
  4435  071E  0844               	movf	(___ftdiv@f1+2),w
  4436  071F  00C7               	movwf	((??___ftdiv+0)+0+2)
  4437  0720  3010               	movlw	010h
  4438  0721                     u5195:
  4439  0721  1003               	clrc
  4440  0722  0CC7               	rrf	(??___ftdiv+0)+2,f
  4441  0723  0CC6               	rrf	(??___ftdiv+0)+1,f
  4442  0724  0CC5               	rrf	(??___ftdiv+0)+0,f
  4443  0725                     u5190:
  4444  0725  3EFF               	addlw	-1
  4445  0726  1D03               	skipz
  4446  0727  2F21               	goto	u5195
  4447  0728  0845               	movf	0+(??___ftdiv+0)+0,w
  4448  0729  00C8               	movwf	(??___ftdiv+3)+0
  4449  072A  0848               	movf	(??___ftdiv+3)+0,w
  4450  072B  00CE               	movwf	(___ftdiv@sign)
  4451                           	line	62
  4452                           	
  4453  072C                     l5410:	
  4454  072C  083F               	movf	(___ftdiv@f2),w
  4455  072D  00C5               	movwf	((??___ftdiv+0)+0)
  4456  072E  0840               	movf	(___ftdiv@f2+1),w
  4457  072F  00C6               	movwf	((??___ftdiv+0)+0+1)
  4458  0730  0841               	movf	(___ftdiv@f2+2),w
  4459  0731  00C7               	movwf	((??___ftdiv+0)+0+2)
  4460  0732  3010               	movlw	010h
  4461  0733                     u5205:
  4462  0733  1003               	clrc
  4463  0734  0CC7               	rrf	(??___ftdiv+0)+2,f
  4464  0735  0CC6               	rrf	(??___ftdiv+0)+1,f
  4465  0736  0CC5               	rrf	(??___ftdiv+0)+0,f
  4466  0737                     u5200:
  4467  0737  3EFF               	addlw	-1
  4468  0738  1D03               	skipz
  4469  0739  2F33               	goto	u5205
  4470  073A  0845               	movf	0+(??___ftdiv+0)+0,w
  4471  073B  00C8               	movwf	(??___ftdiv+3)+0
  4472  073C  0848               	movf	(??___ftdiv+3)+0,w
  4473  073D  06CE               	xorwf	(___ftdiv@sign),f
  4474                           	line	63
  4475                           	
  4476  073E                     l5412:	
  4477  073E  3080               	movlw	(080h)
  4478  073F  00C5               	movwf	(??___ftdiv+0)+0
  4479  0740  0845               	movf	(??___ftdiv+0)+0,w
  4480  0741  05CE               	andwf	(___ftdiv@sign),f
  4481                           	line	64
  4482                           	
  4483  0742                     l5414:	
  4484  0742  17C3               	bsf	(___ftdiv@f1)+(15/8),(15)&7
  4485                           	line	65
  4486  0743  30FF               	movlw	0FFh
  4487  0744  05C2               	andwf	(___ftdiv@f1),f
  4488  0745  30FF               	movlw	0FFh
  4489  0746  05C3               	andwf	(___ftdiv@f1+1),f
  4490  0747  3000               	movlw	0
  4491  0748  05C4               	andwf	(___ftdiv@f1+2),f
  4492                           	line	66
  4493                           	
  4494  0749                     l5416:	
  4495  0749  17C0               	bsf	(___ftdiv@f2)+(15/8),(15)&7
  4496                           	line	67
  4497  074A  30FF               	movlw	0FFh
  4498  074B  05BF               	andwf	(___ftdiv@f2),f
  4499  074C  30FF               	movlw	0FFh
  4500  074D  05C0               	andwf	(___ftdiv@f2+1),f
  4501  074E  3000               	movlw	0
  4502  074F  05C1               	andwf	(___ftdiv@f2+2),f
  4503                           	line	68
  4504  0750  3018               	movlw	(018h)
  4505  0751  00C5               	movwf	(??___ftdiv+0)+0
  4506  0752  0845               	movf	(??___ftdiv+0)+0,w
  4507  0753  00C9               	movwf	(___ftdiv@cntr)
  4508  0754  2F55               	goto	l5418
  4509                           	line	69
  4510                           	
  4511  0755                     l2031:	
  4512                           	line	70
  4513                           	
  4514  0755                     l5418:	
  4515  0755  3001               	movlw	01h
  4516  0756                     u5215:
  4517  0756  1003               	clrc
  4518  0757  0DCA               	rlf	(___ftdiv@f3),f
  4519  0758  0DCB               	rlf	(___ftdiv@f3+1),f
  4520  0759  0DCC               	rlf	(___ftdiv@f3+2),f
  4521  075A  3EFF               	addlw	-1
  4522  075B  1D03               	skipz
  4523  075C  2F56               	goto	u5215
  4524                           	line	71
  4525                           	
  4526  075D                     l5420:	
  4527  075D  0841               	movf	(___ftdiv@f2+2),w
  4528  075E  0244               	subwf	(___ftdiv@f1+2),w
  4529  075F  1D03               	skipz
  4530  0760  2F67               	goto	u5225
  4531  0761  0840               	movf	(___ftdiv@f2+1),w
  4532  0762  0243               	subwf	(___ftdiv@f1+1),w
  4533  0763  1D03               	skipz
  4534  0764  2F67               	goto	u5225
  4535  0765  083F               	movf	(___ftdiv@f2),w
  4536  0766  0242               	subwf	(___ftdiv@f1),w
  4537  0767                     u5225:
  4538  0767  1C03               	skipc
  4539  0768  2F6A               	goto	u5221
  4540  0769  2F6B               	goto	u5220
  4541  076A                     u5221:
  4542  076A  2F77               	goto	l5426
  4543  076B                     u5220:
  4544                           	line	72
  4545                           	
  4546  076B                     l5422:	
  4547  076B  083F               	movf	(___ftdiv@f2),w
  4548  076C  02C2               	subwf	(___ftdiv@f1),f
  4549  076D  0840               	movf	(___ftdiv@f2+1),w
  4550  076E  1C03               	skipc
  4551  076F  0F40               	incfsz	(___ftdiv@f2+1),w
  4552  0770  02C3               	subwf	(___ftdiv@f1+1),f
  4553  0771  0841               	movf	(___ftdiv@f2+2),w
  4554  0772  1C03               	skipc
  4555  0773  0A41               	incf	(___ftdiv@f2+2),w
  4556  0774  02C4               	subwf	(___ftdiv@f1+2),f
  4557                           	line	73
  4558                           	
  4559  0775                     l5424:	
  4560  0775  144A               	bsf	(___ftdiv@f3)+(0/8),(0)&7
  4561  0776  2F77               	goto	l5426
  4562                           	line	74
  4563                           	
  4564  0777                     l2032:	
  4565                           	line	75
  4566                           	
  4567  0777                     l5426:	
  4568  0777  3001               	movlw	01h
  4569  0778                     u5235:
  4570  0778  1003               	clrc
  4571  0779  0DC2               	rlf	(___ftdiv@f1),f
  4572  077A  0DC3               	rlf	(___ftdiv@f1+1),f
  4573  077B  0DC4               	rlf	(___ftdiv@f1+2),f
  4574  077C  3EFF               	addlw	-1
  4575  077D  1D03               	skipz
  4576  077E  2F78               	goto	u5235
  4577                           	line	76
  4578                           	
  4579  077F                     l5428:	
  4580  077F  3001               	movlw	low(01h)
  4581  0780  02C9               	subwf	(___ftdiv@cntr),f
  4582  0781  1D03               	btfss	status,2
  4583  0782  2F84               	goto	u5241
  4584  0783  2F85               	goto	u5240
  4585  0784                     u5241:
  4586  0784  2F55               	goto	l5418
  4587  0785                     u5240:
  4588  0785  2F86               	goto	l5430
  4589                           	
  4590  0786                     l2033:	
  4591                           	line	77
  4592                           	
  4593  0786                     l5430:	
  4594  0786  084A               	movf	(___ftdiv@f3),w
  4595  0787  00A0               	movwf	(?___ftpack)
  4596  0788  084B               	movf	(___ftdiv@f3+1),w
  4597  0789  00A1               	movwf	(?___ftpack+1)
  4598  078A  084C               	movf	(___ftdiv@f3+2),w
  4599  078B  00A2               	movwf	(?___ftpack+2)
  4600  078C  084D               	movf	(___ftdiv@exp),w
  4601  078D  00C5               	movwf	(??___ftdiv+0)+0
  4602  078E  0845               	movf	(??___ftdiv+0)+0,w
  4603  078F  00A3               	movwf	0+(?___ftpack)+03h
  4604  0790  084E               	movf	(___ftdiv@sign),w
  4605  0791  00C6               	movwf	(??___ftdiv+1)+0
  4606  0792  0846               	movf	(??___ftdiv+1)+0,w
  4607  0793  00A4               	movwf	0+(?___ftpack)+04h
  4608  0794  120A  158A  2502   	fcall	___ftpack
              120A  118A         
  4609  0799  1283               	bcf	status, 5	;RP0=0, select bank0
  4610  079A  1303               	bcf	status, 6	;RP1=0, select bank0
  4611  079B  0820               	movf	(0+(?___ftpack)),w
  4612  079C  00BF               	movwf	(?___ftdiv)
  4613  079D  0821               	movf	(1+(?___ftpack)),w
  4614  079E  00C0               	movwf	(?___ftdiv+1)
  4615  079F  0822               	movf	(2+(?___ftpack)),w
  4616  07A0  00C1               	movwf	(?___ftdiv+2)
  4617  07A1  2FA2               	goto	l2029
  4618                           	
  4619  07A2                     l5432:	
  4620                           	line	78
  4621                           	
  4622  07A2                     l2029:	
  4623  07A2  0008               	return
  4624                           	opt stack 0
  4625                           GLOBAL	__end_of___ftdiv
  4626  07A3                     	__end_of___ftdiv:
  4627 ;; =============== function ___ftdiv ends ============
  4628                           
  4629                           	signat	___ftdiv,8315
  4630                           	global	___ftadd
  4631                           psect	text997,local,class=CODE,delta=2
  4632                           global __ptext997
  4633  0264                     __ptext997:
  4634                           
  4635 ;; *************** function ___ftadd *****************
  4636 ;; Defined at:
  4637 ;;		line 87 in file "C:\Program Files (x86)\HI-TECH Software\PICC\9.80\sources\ftadd.c"
  4638 ;; Parameters:    Size  Location     Type
  4639 ;;  f1              3   31[BANK0 ] float 
  4640 ;;  f2              3   34[BANK0 ] float 
  4641 ;; Auto vars:     Size  Location     Type
  4642 ;;  exp1            1   43[BANK0 ] unsigned char 
  4643 ;;  exp2            1   42[BANK0 ] unsigned char 
  4644 ;;  sign            1   41[BANK0 ] unsigned char 
  4645 ;; Return value:  Size  Location     Type
  4646 ;;                  3   31[BANK0 ] float 
  4647 ;; Registers used:
  4648 ;;		wreg, status,2, status,0, pclath, cstack
  4649 ;; Tracked objects:
  4650 ;;		On entry : 0/0
  4651 ;;		On exit  : 0/0
  4652 ;;		Unchanged: 0/0
  4653 ;; Data sizes:     COMMON   BANK0   BANK1   BANK3   BANK2
  4654 ;;      Params:         0       6       0       0       0
  4655 ;;      Locals:         0       3       0       0       0
  4656 ;;      Temps:          0       4       0       0       0
  4657 ;;      Totals:         0      13       0       0       0
  4658 ;;Total ram usage:       13 bytes
  4659 ;; Hardware stack levels used:    1
  4660 ;; Hardware stack levels required when called:    2
  4661 ;; This function calls:
  4662 ;;		___ftpack
  4663 ;; This function is called by:
  4664 ;;		_xu_ly_lux
  4665 ;;		___ftsub
  4666 ;; This function uses a non-reentrant model
  4667 ;;
  4668                           psect	text997
  4669                           	file	"C:\Program Files (x86)\HI-TECH Software\PICC\9.80\sources\ftadd.c"
  4670                           	line	87
  4671                           	global	__size_of___ftadd
  4672  014A                     	__size_of___ftadd	equ	__end_of___ftadd-___ftadd
  4673                           	
  4674  0264                     ___ftadd:	
  4675                           	opt	stack 4
  4676                           ; Regs used in ___ftadd: [wreg+status,2+status,0+pclath+cstack]
  4677                           	line	90
  4678                           	
  4679  0264                     l5320:	
  4680  0264  1283               	bcf	status, 5	;RP0=0, select bank0
  4681  0265  1303               	bcf	status, 6	;RP1=0, select bank0
  4682  0266  083F               	movf	(___ftadd@f1),w
  4683  0267  00C5               	movwf	((??___ftadd+0)+0)
  4684  0268  0840               	movf	(___ftadd@f1+1),w
  4685  0269  00C6               	movwf	((??___ftadd+0)+0+1)
  4686  026A  0841               	movf	(___ftadd@f1+2),w
  4687  026B  00C7               	movwf	((??___ftadd+0)+0+2)
  4688  026C  1003               	clrc
  4689  026D  0D46               	rlf	(??___ftadd+0)+1,w
  4690  026E  0D47               	rlf	(??___ftadd+0)+2,w
  4691  026F  00C8               	movwf	(??___ftadd+3)+0
  4692  0270  0848               	movf	(??___ftadd+3)+0,w
  4693  0271  00CB               	movwf	(___ftadd@exp1)
  4694                           	line	91
  4695  0272  0842               	movf	(___ftadd@f2),w
  4696  0273  00C5               	movwf	((??___ftadd+0)+0)
  4697  0274  0843               	movf	(___ftadd@f2+1),w
  4698  0275  00C6               	movwf	((??___ftadd+0)+0+1)
  4699  0276  0844               	movf	(___ftadd@f2+2),w
  4700  0277  00C7               	movwf	((??___ftadd+0)+0+2)
  4701  0278  1003               	clrc
  4702  0279  0D46               	rlf	(??___ftadd+0)+1,w
  4703  027A  0D47               	rlf	(??___ftadd+0)+2,w
  4704  027B  00C8               	movwf	(??___ftadd+3)+0
  4705  027C  0848               	movf	(??___ftadd+3)+0,w
  4706  027D  00CA               	movwf	(___ftadd@exp2)
  4707                           	line	92
  4708                           	
  4709  027E                     l5322:	
  4710  027E  084B               	movf	(___ftadd@exp1),w
  4711  027F  1D03               	skipz
  4712  0280  2A82               	goto	u4930
  4713  0281  2A93               	goto	l5328
  4714  0282                     u4930:
  4715                           	
  4716  0282                     l5324:	
  4717  0282  084A               	movf	(___ftadd@exp2),w
  4718  0283  024B               	subwf	(___ftadd@exp1),w
  4719  0284  1803               	skipnc
  4720  0285  2A87               	goto	u4941
  4721  0286  2A88               	goto	u4940
  4722  0287                     u4941:
  4723  0287  2A9B               	goto	l5332
  4724  0288                     u4940:
  4725                           	
  4726  0288                     l5326:	
  4727  0288  034B               	decf	(___ftadd@exp1),w
  4728  0289  3AFF               	xorlw	0ffh
  4729  028A  074A               	addwf	(___ftadd@exp2),w
  4730  028B  00C5               	movwf	(??___ftadd+0)+0
  4731  028C  3019               	movlw	(019h)
  4732  028D  0245               	subwf	0+(??___ftadd+0)+0,w
  4733  028E  1C03               	skipc
  4734  028F  2A91               	goto	u4951
  4735  0290  2A92               	goto	u4950
  4736  0291                     u4951:
  4737  0291  2A9B               	goto	l5332
  4738  0292                     u4950:
  4739  0292  2A93               	goto	l5328
  4740                           	
  4741  0293                     l1986:	
  4742                           	line	93
  4743                           	
  4744  0293                     l5328:	
  4745  0293  0842               	movf	(___ftadd@f2),w
  4746  0294  00BF               	movwf	(?___ftadd)
  4747  0295  0843               	movf	(___ftadd@f2+1),w
  4748  0296  00C0               	movwf	(?___ftadd+1)
  4749  0297  0844               	movf	(___ftadd@f2+2),w
  4750  0298  00C1               	movwf	(?___ftadd+2)
  4751  0299  2BAD               	goto	l1987
  4752                           	
  4753  029A                     l5330:	
  4754  029A  2BAD               	goto	l1987
  4755                           	
  4756  029B                     l1984:	
  4757                           	line	94
  4758                           	
  4759  029B                     l5332:	
  4760  029B  084A               	movf	(___ftadd@exp2),w
  4761  029C  1D03               	skipz
  4762  029D  2A9F               	goto	u4960
  4763  029E  2AAF               	goto	l1990
  4764  029F                     u4960:
  4765                           	
  4766  029F                     l5334:	
  4767  029F  084B               	movf	(___ftadd@exp1),w
  4768  02A0  024A               	subwf	(___ftadd@exp2),w
  4769  02A1  1803               	skipnc
  4770  02A2  2AA4               	goto	u4971
  4771  02A3  2AA5               	goto	u4970
  4772  02A4                     u4971:
  4773  02A4  2AB0               	goto	l5338
  4774  02A5                     u4970:
  4775                           	
  4776  02A5                     l5336:	
  4777  02A5  034A               	decf	(___ftadd@exp2),w
  4778  02A6  3AFF               	xorlw	0ffh
  4779  02A7  074B               	addwf	(___ftadd@exp1),w
  4780  02A8  00C5               	movwf	(??___ftadd+0)+0
  4781  02A9  3019               	movlw	(019h)
  4782  02AA  0245               	subwf	0+(??___ftadd+0)+0,w
  4783  02AB  1C03               	skipc
  4784  02AC  2AAE               	goto	u4981
  4785  02AD  2AAF               	goto	u4980
  4786  02AE                     u4981:
  4787  02AE  2AB0               	goto	l5338
  4788  02AF                     u4980:
  4789                           	
  4790  02AF                     l1990:	
  4791                           	line	95
  4792  02AF  2BAD               	goto	l1987
  4793                           	
  4794  02B0                     l1988:	
  4795                           	line	96
  4796                           	
  4797  02B0                     l5338:	
  4798  02B0  3006               	movlw	(06h)
  4799  02B1  00C5               	movwf	(??___ftadd+0)+0
  4800  02B2  0845               	movf	(??___ftadd+0)+0,w
  4801  02B3  00C9               	movwf	(___ftadd@sign)
  4802                           	line	97
  4803                           	
  4804  02B4                     l5340:	
  4805  02B4  1FC1               	btfss	(___ftadd@f1+2),(23)&7
  4806  02B5  2AB7               	goto	u4991
  4807  02B6  2AB8               	goto	u4990
  4808  02B7                     u4991:
  4809  02B7  2AB9               	goto	l1991
  4810  02B8                     u4990:
  4811                           	line	98
  4812                           	
  4813  02B8                     l5342:	
  4814  02B8  17C9               	bsf	(___ftadd@sign)+(7/8),(7)&7
  4815                           	
  4816  02B9                     l1991:	
  4817                           	line	99
  4818  02B9  1FC4               	btfss	(___ftadd@f2+2),(23)&7
  4819  02BA  2ABC               	goto	u5001
  4820  02BB  2ABD               	goto	u5000
  4821  02BC                     u5001:
  4822  02BC  2ABE               	goto	l1992
  4823  02BD                     u5000:
  4824                           	line	100
  4825                           	
  4826  02BD                     l5344:	
  4827  02BD  1749               	bsf	(___ftadd@sign)+(6/8),(6)&7
  4828                           	
  4829  02BE                     l1992:	
  4830                           	line	101
  4831  02BE  17C0               	bsf	(___ftadd@f1)+(15/8),(15)&7
  4832                           	line	102
  4833                           	
  4834  02BF                     l5346:	
  4835  02BF  30FF               	movlw	0FFh
  4836  02C0  05BF               	andwf	(___ftadd@f1),f
  4837  02C1  30FF               	movlw	0FFh
  4838  02C2  05C0               	andwf	(___ftadd@f1+1),f
  4839  02C3  3000               	movlw	0
  4840  02C4  05C1               	andwf	(___ftadd@f1+2),f
  4841                           	line	103
  4842                           	
  4843  02C5                     l5348:	
  4844  02C5  17C3               	bsf	(___ftadd@f2)+(15/8),(15)&7
  4845                           	line	104
  4846  02C6  30FF               	movlw	0FFh
  4847  02C7  05C2               	andwf	(___ftadd@f2),f
  4848  02C8  30FF               	movlw	0FFh
  4849  02C9  05C3               	andwf	(___ftadd@f2+1),f
  4850  02CA  3000               	movlw	0
  4851  02CB  05C4               	andwf	(___ftadd@f2+2),f
  4852                           	line	106
  4853  02CC  084A               	movf	(___ftadd@exp2),w
  4854  02CD  024B               	subwf	(___ftadd@exp1),w
  4855  02CE  1803               	skipnc
  4856  02CF  2AD1               	goto	u5011
  4857  02D0  2AD2               	goto	u5010
  4858  02D1                     u5011:
  4859  02D1  2B03               	goto	l5360
  4860  02D2                     u5010:
  4861  02D2  2AD3               	goto	l5350
  4862                           	line	109
  4863                           	
  4864  02D3                     l1994:	
  4865                           	line	110
  4866                           	
  4867  02D3                     l5350:	
  4868  02D3  3001               	movlw	01h
  4869  02D4                     u5025:
  4870  02D4  1003               	clrc
  4871  02D5  0DC2               	rlf	(___ftadd@f2),f
  4872  02D6  0DC3               	rlf	(___ftadd@f2+1),f
  4873  02D7  0DC4               	rlf	(___ftadd@f2+2),f
  4874  02D8  3EFF               	addlw	-1
  4875  02D9  1D03               	skipz
  4876  02DA  2AD4               	goto	u5025
  4877                           	line	111
  4878  02DB  3001               	movlw	low(01h)
  4879  02DC  02CA               	subwf	(___ftadd@exp2),f
  4880                           	line	112
  4881                           	
  4882  02DD                     l5352:	
  4883  02DD  084A               	movf	(___ftadd@exp2),w
  4884  02DE  064B               	xorwf	(___ftadd@exp1),w
  4885  02DF  1903               	skipnz
  4886  02E0  2AE2               	goto	u5031
  4887  02E1  2AE3               	goto	u5030
  4888  02E2                     u5031:
  4889  02E2  2AFB               	goto	l5358
  4890  02E3                     u5030:
  4891                           	
  4892  02E3                     l5354:	
  4893  02E3  3001               	movlw	low(01h)
  4894  02E4  02C9               	subwf	(___ftadd@sign),f
  4895  02E5  0849               	movf	((___ftadd@sign)),w
  4896  02E6  3907               	andlw	07h
  4897  02E7  1D03               	btfss	status,2
  4898  02E8  2AEA               	goto	u5041
  4899  02E9  2AEB               	goto	u5040
  4900  02EA                     u5041:
  4901  02EA  2AD3               	goto	l5350
  4902  02EB                     u5040:
  4903  02EB  2AFB               	goto	l5358
  4904                           	
  4905  02EC                     l1996:	
  4906  02EC  2AFB               	goto	l5358
  4907                           	
  4908  02ED                     l1997:	
  4909                           	line	113
  4910  02ED  2AFB               	goto	l5358
  4911                           	
  4912  02EE                     l1999:	
  4913                           	line	114
  4914                           	
  4915  02EE                     l5356:	
  4916  02EE  3001               	movlw	01h
  4917  02EF                     u5055:
  4918  02EF  1003               	clrc
  4919  02F0  0CC1               	rrf	(___ftadd@f1+2),f
  4920  02F1  0CC0               	rrf	(___ftadd@f1+1),f
  4921  02F2  0CBF               	rrf	(___ftadd@f1),f
  4922  02F3  3EFF               	addlw	-1
  4923  02F4  1D03               	skipz
  4924  02F5  2AEF               	goto	u5055
  4925                           
  4926                           	line	115
  4927  02F6  3001               	movlw	(01h)
  4928  02F7  00C5               	movwf	(??___ftadd+0)+0
  4929  02F8  0845               	movf	(??___ftadd+0)+0,w
  4930  02F9  07CB               	addwf	(___ftadd@exp1),f
  4931  02FA  2AFB               	goto	l5358
  4932                           	line	116
  4933                           	
  4934  02FB                     l1998:	
  4935                           	line	113
  4936                           	
  4937  02FB                     l5358:	
  4938  02FB  084B               	movf	(___ftadd@exp1),w
  4939  02FC  064A               	xorwf	(___ftadd@exp2),w
  4940  02FD  1D03               	skipz
  4941  02FE  2B00               	goto	u5061
  4942  02FF  2B01               	goto	u5060
  4943  0300                     u5061:
  4944  0300  2AEE               	goto	l5356
  4945  0301                     u5060:
  4946  0301  2B3A               	goto	l2001
  4947                           	
  4948  0302                     l2000:	
  4949                           	line	117
  4950  0302  2B3A               	goto	l2001
  4951                           	
  4952  0303                     l1993:	
  4953                           	
  4954  0303                     l5360:	
  4955  0303  084B               	movf	(___ftadd@exp1),w
  4956  0304  024A               	subwf	(___ftadd@exp2),w
  4957  0305  1803               	skipnc
  4958  0306  2B08               	goto	u5071
  4959  0307  2B09               	goto	u5070
  4960  0308                     u5071:
  4961  0308  2B3A               	goto	l2001
  4962  0309                     u5070:
  4963  0309  2B0A               	goto	l5362
  4964                           	line	120
  4965                           	
  4966  030A                     l2003:	
  4967                           	line	121
  4968                           	
  4969  030A                     l5362:	
  4970  030A  3001               	movlw	01h
  4971  030B                     u5085:
  4972  030B  1003               	clrc
  4973  030C  0DBF               	rlf	(___ftadd@f1),f
  4974  030D  0DC0               	rlf	(___ftadd@f1+1),f
  4975  030E  0DC1               	rlf	(___ftadd@f1+2),f
  4976  030F  3EFF               	addlw	-1
  4977  0310  1D03               	skipz
  4978  0311  2B0B               	goto	u5085
  4979                           	line	122
  4980  0312  3001               	movlw	low(01h)
  4981  0313  02CB               	subwf	(___ftadd@exp1),f
  4982                           	line	123
  4983                           	
  4984  0314                     l5364:	
  4985  0314  084A               	movf	(___ftadd@exp2),w
  4986  0315  064B               	xorwf	(___ftadd@exp1),w
  4987  0316  1903               	skipnz
  4988  0317  2B19               	goto	u5091
  4989  0318  2B1A               	goto	u5090
  4990  0319                     u5091:
  4991  0319  2B32               	goto	l5370
  4992  031A                     u5090:
  4993                           	
  4994  031A                     l5366:	
  4995  031A  3001               	movlw	low(01h)
  4996  031B  02C9               	subwf	(___ftadd@sign),f
  4997  031C  0849               	movf	((___ftadd@sign)),w
  4998  031D  3907               	andlw	07h
  4999  031E  1D03               	btfss	status,2
  5000  031F  2B21               	goto	u5101
  5001  0320  2B22               	goto	u5100
  5002  0321                     u5101:
  5003  0321  2B0A               	goto	l5362
  5004  0322                     u5100:
  5005  0322  2B32               	goto	l5370
  5006                           	
  5007  0323                     l2005:	
  5008  0323  2B32               	goto	l5370
  5009                           	
  5010  0324                     l2006:	
  5011                           	line	124
  5012  0324  2B32               	goto	l5370
  5013                           	
  5014  0325                     l2008:	
  5015                           	line	125
  5016                           	
  5017  0325                     l5368:	
  5018  0325  3001               	movlw	01h
  5019  0326                     u5115:
  5020  0326  1003               	clrc
  5021  0327  0CC4               	rrf	(___ftadd@f2+2),f
  5022  0328  0CC3               	rrf	(___ftadd@f2+1),f
  5023  0329  0CC2               	rrf	(___ftadd@f2),f
  5024  032A  3EFF               	addlw	-1
  5025  032B  1D03               	skipz
  5026  032C  2B26               	goto	u5115
  5027                           
  5028                           	line	126
  5029  032D  3001               	movlw	(01h)
  5030  032E  00C5               	movwf	(??___ftadd+0)+0
  5031  032F  0845               	movf	(??___ftadd+0)+0,w
  5032  0330  07CA               	addwf	(___ftadd@exp2),f
  5033  0331  2B32               	goto	l5370
  5034                           	line	127
  5035                           	
  5036  0332                     l2007:	
  5037                           	line	124
  5038                           	
  5039  0332                     l5370:	
  5040  0332  084B               	movf	(___ftadd@exp1),w
  5041  0333  064A               	xorwf	(___ftadd@exp2),w
  5042  0334  1D03               	skipz
  5043  0335  2B37               	goto	u5121
  5044  0336  2B38               	goto	u5120
  5045  0337                     u5121:
  5046  0337  2B25               	goto	l5368
  5047  0338                     u5120:
  5048  0338  2B3A               	goto	l2001
  5049                           	
  5050  0339                     l2009:	
  5051  0339  2B3A               	goto	l2001
  5052                           	line	128
  5053                           	
  5054  033A                     l2002:	
  5055                           	line	129
  5056                           	
  5057  033A                     l2001:	
  5058  033A  1FC9               	btfss	(___ftadd@sign),(7)&7
  5059  033B  2B3D               	goto	u5131
  5060  033C  2B3E               	goto	u5130
  5061  033D                     u5131:
  5062  033D  2B4F               	goto	l5374
  5063  033E                     u5130:
  5064                           	line	131
  5065                           	
  5066  033E                     l5372:	
  5067  033E  30FF               	movlw	0FFh
  5068  033F  06BF               	xorwf	(___ftadd@f1),f
  5069  0340  30FF               	movlw	0FFh
  5070  0341  06C0               	xorwf	(___ftadd@f1+1),f
  5071  0342  30FF               	movlw	0FFh
  5072  0343  06C1               	xorwf	(___ftadd@f1+2),f
  5073                           	line	132
  5074  0344  3001               	movlw	01h
  5075  0345  07BF               	addwf	(___ftadd@f1),f
  5076  0346  3000               	movlw	0
  5077  0347  1803               	skipnc
  5078  0348  3001               movlw 1
  5079  0349  07C0               	addwf	(___ftadd@f1+1),f
  5080  034A  3000               	movlw	0
  5081  034B  1803               	skipnc
  5082  034C  3001               movlw 1
  5083  034D  07C1               	addwf	(___ftadd@f1+2),f
  5084  034E  2B4F               	goto	l5374
  5085                           	line	133
  5086                           	
  5087  034F                     l2010:	
  5088                           	line	134
  5089                           	
  5090  034F                     l5374:	
  5091  034F  1F49               	btfss	(___ftadd@sign),(6)&7
  5092  0350  2B52               	goto	u5141
  5093  0351  2B53               	goto	u5140
  5094  0352                     u5141:
  5095  0352  2B64               	goto	l5378
  5096  0353                     u5140:
  5097                           	line	136
  5098                           	
  5099  0353                     l5376:	
  5100  0353  30FF               	movlw	0FFh
  5101  0354  06C2               	xorwf	(___ftadd@f2),f
  5102  0355  30FF               	movlw	0FFh
  5103  0356  06C3               	xorwf	(___ftadd@f2+1),f
  5104  0357  30FF               	movlw	0FFh
  5105  0358  06C4               	xorwf	(___ftadd@f2+2),f
  5106                           	line	137
  5107  0359  3001               	movlw	01h
  5108  035A  07C2               	addwf	(___ftadd@f2),f
  5109  035B  3000               	movlw	0
  5110  035C  1803               	skipnc
  5111  035D  3001               movlw 1
  5112  035E  07C3               	addwf	(___ftadd@f2+1),f
  5113  035F  3000               	movlw	0
  5114  0360  1803               	skipnc
  5115  0361  3001               movlw 1
  5116  0362  07C4               	addwf	(___ftadd@f2+2),f
  5117  0363  2B64               	goto	l5378
  5118                           	line	138
  5119                           	
  5120  0364                     l2011:	
  5121                           	line	139
  5122                           	
  5123  0364                     l5378:	
  5124  0364  1003               	clrc
  5125  0365  3000               	movlw	0
  5126  0366  1803               	btfsc	status,0
  5127  0367  3001               	movlw	1
  5128  0368  00C9               	movwf	(___ftadd@sign)
  5129                           	line	140
  5130                           	
  5131  0369                     l5380:	
  5132  0369  083F               	movf	(___ftadd@f1),w
  5133  036A  07C2               	addwf	(___ftadd@f2),f
  5134  036B  0840               	movf	(___ftadd@f1+1),w
  5135  036C  1103               	clrz
  5136  036D  1803               	skipnc
  5137  036E  0A40               	incf	(___ftadd@f1+1),w
  5138  036F  1903               	skipnz
  5139  0370  2B72               	goto	u5151
  5140  0371  07C3               	addwf	(___ftadd@f2+1),f
  5141  0372                     u5151:
  5142  0372  0841               	movf	(___ftadd@f1+2),w
  5143  0373  1103               	clrz
  5144  0374  1803               	skipnc
  5145  0375  0A41               	incf	(___ftadd@f1+2),w
  5146  0376  1903               	skipnz
  5147  0377  2B79               	goto	u5152
  5148  0378  07C4               	addwf	(___ftadd@f2+2),f
  5149  0379                     u5152:
  5150                           
  5151                           	line	141
  5152                           	
  5153  0379                     l5382:	
  5154  0379  1FC4               	btfss	(___ftadd@f2+2),(23)&7
  5155  037A  2B7C               	goto	u5161
  5156  037B  2B7D               	goto	u5160
  5157  037C                     u5161:
  5158  037C  2B91               	goto	l5388
  5159  037D                     u5160:
  5160                           	line	142
  5161                           	
  5162  037D                     l5384:	
  5163  037D  30FF               	movlw	0FFh
  5164  037E  06C2               	xorwf	(___ftadd@f2),f
  5165  037F  30FF               	movlw	0FFh
  5166  0380  06C3               	xorwf	(___ftadd@f2+1),f
  5167  0381  30FF               	movlw	0FFh
  5168  0382  06C4               	xorwf	(___ftadd@f2+2),f
  5169                           	line	143
  5170  0383  3001               	movlw	01h
  5171  0384  07C2               	addwf	(___ftadd@f2),f
  5172  0385  3000               	movlw	0
  5173  0386  1803               	skipnc
  5174  0387  3001               movlw 1
  5175  0388  07C3               	addwf	(___ftadd@f2+1),f
  5176  0389  3000               	movlw	0
  5177  038A  1803               	skipnc
  5178  038B  3001               movlw 1
  5179  038C  07C4               	addwf	(___ftadd@f2+2),f
  5180                           	line	144
  5181                           	
  5182  038D                     l5386:	
  5183  038D  01C9               	clrf	(___ftadd@sign)
  5184  038E  1403               	bsf	status,0
  5185  038F  0DC9               	rlf	(___ftadd@sign),f
  5186  0390  2B91               	goto	l5388
  5187                           	line	145
  5188                           	
  5189  0391                     l2012:	
  5190                           	line	146
  5191                           	
  5192  0391                     l5388:	
  5193  0391  0842               	movf	(___ftadd@f2),w
  5194  0392  00A0               	movwf	(?___ftpack)
  5195  0393  0843               	movf	(___ftadd@f2+1),w
  5196  0394  00A1               	movwf	(?___ftpack+1)
  5197  0395  0844               	movf	(___ftadd@f2+2),w
  5198  0396  00A2               	movwf	(?___ftpack+2)
  5199  0397  084B               	movf	(___ftadd@exp1),w
  5200  0398  00C5               	movwf	(??___ftadd+0)+0
  5201  0399  0845               	movf	(??___ftadd+0)+0,w
  5202  039A  00A3               	movwf	0+(?___ftpack)+03h
  5203  039B  0849               	movf	(___ftadd@sign),w
  5204  039C  00C6               	movwf	(??___ftadd+1)+0
  5205  039D  0846               	movf	(??___ftadd+1)+0,w
  5206  039E  00A4               	movwf	0+(?___ftpack)+04h
  5207  039F  120A  158A  2502   	fcall	___ftpack
              120A  118A         
  5208  03A4  1283               	bcf	status, 5	;RP0=0, select bank0
  5209  03A5  1303               	bcf	status, 6	;RP1=0, select bank0
  5210  03A6  0820               	movf	(0+(?___ftpack)),w
  5211  03A7  00BF               	movwf	(?___ftadd)
  5212  03A8  0821               	movf	(1+(?___ftpack)),w
  5213  03A9  00C0               	movwf	(?___ftadd+1)
  5214  03AA  0822               	movf	(2+(?___ftpack)),w
  5215  03AB  00C1               	movwf	(?___ftadd+2)
  5216  03AC  2BAD               	goto	l1987
  5217                           	
  5218  03AD                     l5390:	
  5219                           	line	148
  5220                           	
  5221  03AD                     l1987:	
  5222  03AD  0008               	return
  5223                           	opt stack 0
  5224                           GLOBAL	__end_of___ftadd
  5225  03AE                     	__end_of___ftadd:
  5226 ;; =============== function ___ftadd ends ============
  5227                           
  5228                           	signat	___ftadd,8315
  5229                           	global	_lcd_busy
  5230                           psect	text998,local,class=CODE,delta=2
  5231                           global __ptext998
  5232  0B04                     __ptext998:
  5233                           
  5234 ;; *************** function _lcd_busy *****************
  5235 ;; Defined at:
  5236 ;;		line 47 in file "C:\Users\Administrator\Desktop\CODE1-ACE5\CODE1-FRAME WORK\CODE MPLAP\lcd.c"
  5237 ;; Parameters:    Size  Location     Type
  5238 ;;		None
  5239 ;; Auto vars:     Size  Location     Type
  5240 ;;  busy            1    1[BANK0 ] unsigned char 
  5241 ;; Return value:  Size  Location     Type
  5242 ;;                  1    wreg      unsigned char 
  5243 ;; Registers used:
  5244 ;;		wreg
  5245 ;; Tracked objects:
  5246 ;;		On entry : 0/0
  5247 ;;		On exit  : 0/0
  5248 ;;		Unchanged: 0/0
  5249 ;; Data sizes:     COMMON   BANK0   BANK1   BANK3   BANK2
  5250 ;;      Params:         0       0       0       0       0
  5251 ;;      Locals:         0       1       0       0       0
  5252 ;;      Temps:          0       1       0       0       0
  5253 ;;      Totals:         0       2       0       0       0
  5254 ;;Total ram usage:        2 bytes
  5255 ;; Hardware stack levels used:    1
  5256 ;; Hardware stack levels required when called:    1
  5257 ;; This function calls:
  5258 ;;		Nothing
  5259 ;; This function is called by:
  5260 ;;		_lcd_init
  5261 ;;		_lcd_putc
  5262 ;;		_lcd_gotoxy
  5263 ;; This function uses a non-reentrant model
  5264 ;;
  5265                           psect	text998
  5266                           	file	"C:\Users\Administrator\Desktop\CODE1-ACE5\CODE1-FRAME WORK\CODE MPLAP\lcd.c"
  5267                           	line	47
  5268                           	global	__size_of_lcd_busy
  5269  0033                     	__size_of_lcd_busy	equ	__end_of_lcd_busy-_lcd_busy
  5270                           	
  5271  0B04                     _lcd_busy:	
  5272                           	opt	stack 3
  5273                           ; Regs used in _lcd_busy: [wreg]
  5274                           	line	50
  5275                           	
  5276  0B04                     l5306:	
  5277                           ;lcd.c: 48: unsigned char busy;
  5278                           ;lcd.c: 50: TRISD4 = 1;
  5279  0B04  1683               	bsf	status, 5	;RP0=1, select bank1
  5280  0B05  1303               	bcf	status, 6	;RP1=0, select bank1
  5281  0B06  1608               	bsf	(1092/8)^080h,(1092)&7
  5282                           	line	51
  5283                           ;lcd.c: 51: TRISD5 = 1;
  5284  0B07  1688               	bsf	(1093/8)^080h,(1093)&7
  5285                           	line	52
  5286                           ;lcd.c: 52: TRISD6 = 1;
  5287  0B08  1708               	bsf	(1094/8)^080h,(1094)&7
  5288                           	line	53
  5289                           ;lcd.c: 53: TRISD7 = 1;
  5290  0B09  1788               	bsf	(1095/8)^080h,(1095)&7
  5291                           	line	55
  5292                           ;lcd.c: 55: RD2 = 1;
  5293  0B0A  1283               	bcf	status, 5	;RP0=0, select bank0
  5294  0B0B  1303               	bcf	status, 6	;RP1=0, select bank0
  5295  0B0C  1508               	bsf	(66/8),(66)&7
  5296                           	line	56
  5297                           ;lcd.c: 56: RD1 = 0;
  5298  0B0D  1088               	bcf	(65/8),(65)&7
  5299                           	line	57
  5300                           	
  5301  0B0E                     l5308:	
  5302                           ;lcd.c: 57: _delay((unsigned long)((20)*(4000000/4000000.0)));
  5303                           	opt asmopt_off
  5304  0B0E  3006               movlw	6
  5305  0B0F  00A0               movwf	(??_lcd_busy+0)+0,f
  5306  0B10                     u5647:
  5307  0B10  0BA0               decfsz	(??_lcd_busy+0)+0,f
  5308  0B11  2B10               	goto	u5647
  5309  0B12  0064               	clrwdt
  5310                           opt asmopt_on
  5311                           
  5312                           	line	58
  5313                           	
  5314  0B13                     l5310:	
  5315                           ;lcd.c: 58: RD3 = 1;
  5316  0B13  1283               	bcf	status, 5	;RP0=0, select bank0
  5317  0B14  1303               	bcf	status, 6	;RP1=0, select bank0
  5318  0B15  1588               	bsf	(67/8),(67)&7
  5319                           	line	59
  5320                           ;lcd.c: 59: _delay((unsigned long)((20)*(4000000/4000000.0)));
  5321                           	opt asmopt_off
  5322  0B16  3006               movlw	6
  5323  0B17  00A0               movwf	(??_lcd_busy+0)+0,f
  5324  0B18                     u5657:
  5325  0B18  0BA0               decfsz	(??_lcd_busy+0)+0,f
  5326  0B19  2B18               	goto	u5657
  5327  0B1A  0064               	clrwdt
  5328                           opt asmopt_on
  5329                           
  5330                           	line	61
  5331                           ;lcd.c: 61: busy = RD7;
  5332  0B1B  3000               	movlw	0
  5333  0B1C  1283               	bcf	status, 5	;RP0=0, select bank0
  5334  0B1D  1303               	bcf	status, 6	;RP1=0, select bank0
  5335  0B1E  1B88               	btfsc	(71/8),(71)&7
  5336  0B1F  3001               	movlw	1
  5337  0B20  00A0               	movwf	(??_lcd_busy+0)+0
  5338  0B21  0820               	movf	(??_lcd_busy+0)+0,w
  5339  0B22  00A1               	movwf	(lcd_busy@busy)
  5340                           	line	63
  5341                           	
  5342  0B23                     l5312:	
  5343                           ;lcd.c: 63: RD3 = 0;
  5344  0B23  1188               	bcf	(67/8),(67)&7
  5345                           	line	64
  5346                           ;lcd.c: 64: _delay((unsigned long)((20)*(4000000/4000000.0)));
  5347                           	opt asmopt_off
  5348  0B24  3006               movlw	6
  5349  0B25  00A0               movwf	(??_lcd_busy+0)+0,f
  5350  0B26                     u5667:
  5351  0B26  0BA0               decfsz	(??_lcd_busy+0)+0,f
  5352  0B27  2B26               	goto	u5667
  5353  0B28  0064               	clrwdt
  5354                           opt asmopt_on
  5355                           
  5356                           	line	65
  5357                           	
  5358  0B29                     l5314:	
  5359                           ;lcd.c: 65: RD3 = 1;
  5360  0B29  1283               	bcf	status, 5	;RP0=0, select bank0
  5361  0B2A  1303               	bcf	status, 6	;RP1=0, select bank0
  5362  0B2B  1588               	bsf	(67/8),(67)&7
  5363                           	line	66
  5364                           ;lcd.c: 66: _delay((unsigned long)((20)*(4000000/4000000.0)));
  5365                           	opt asmopt_off
  5366  0B2C  3006               movlw	6
  5367  0B2D  00A0               movwf	(??_lcd_busy+0)+0,f
  5368  0B2E                     u5677:
  5369  0B2E  0BA0               decfsz	(??_lcd_busy+0)+0,f
  5370  0B2F  2B2E               	goto	u5677
  5371  0B30  0064               	clrwdt
  5372                           opt asmopt_on
  5373                           
  5374                           	line	67
  5375                           	
  5376  0B31                     l5316:	
  5377                           ;lcd.c: 67: RD3 = 0;
  5378  0B31  1283               	bcf	status, 5	;RP0=0, select bank0
  5379  0B32  1303               	bcf	status, 6	;RP1=0, select bank0
  5380  0B33  1188               	bcf	(67/8),(67)&7
  5381                           	line	70
  5382                           ;lcd.c: 70: return busy;
  5383  0B34  0821               	movf	(lcd_busy@busy),w
  5384  0B35  2B36               	goto	l1889
  5385                           	
  5386  0B36                     l5318:	
  5387                           	line	71
  5388                           	
  5389  0B36                     l1889:	
  5390  0B36  0008               	return
  5391                           	opt stack 0
  5392                           GLOBAL	__end_of_lcd_busy
  5393  0B37                     	__end_of_lcd_busy:
  5394 ;; =============== function _lcd_busy ends ============
  5395                           
  5396                           	signat	_lcd_busy,89
  5397                           	global	_lcd_put_byte
  5398                           psect	text999,local,class=CODE,delta=2
  5399                           global __ptext999
  5400  0F3E                     __ptext999:
  5401                           
  5402 ;; *************** function _lcd_put_byte *****************
  5403 ;; Defined at:
  5404 ;;		line 106 in file "C:\Users\Administrator\Desktop\CODE1-ACE5\CODE1-FRAME WORK\CODE MPLAP\lcd.c"
  5405 ;; Parameters:    Size  Location     Type
  5406 ;;  rs              1    wreg     unsigned char 
  5407 ;;  b               1    0[BANK0 ] unsigned char 
  5408 ;; Auto vars:     Size  Location     Type
  5409 ;;  rs              1    3[BANK0 ] unsigned char 
  5410 ;;  temp            1    4[BANK0 ] struct _BYTE_VAL
  5411 ;; Return value:  Size  Location     Type
  5412 ;;		None               void
  5413 ;; Registers used:
  5414 ;;		wreg, status,2, status,0
  5415 ;; Tracked objects:
  5416 ;;		On entry : 0/0
  5417 ;;		On exit  : 0/0
  5418 ;;		Unchanged: 0/0
  5419 ;; Data sizes:     COMMON   BANK0   BANK1   BANK3   BANK2
  5420 ;;      Params:         0       1       0       0       0
  5421 ;;      Locals:         0       2       0       0       0
  5422 ;;      Temps:          0       2       0       0       0
  5423 ;;      Totals:         0       5       0       0       0
  5424 ;;Total ram usage:        5 bytes
  5425 ;; Hardware stack levels used:    1
  5426 ;; Hardware stack levels required when called:    1
  5427 ;; This function calls:
  5428 ;;		Nothing
  5429 ;; This function is called by:
  5430 ;;		_lcd_init
  5431 ;;		_lcd_putc
  5432 ;;		_lcd_gotoxy
  5433 ;; This function uses a non-reentrant model
  5434 ;;
  5435                           psect	text999
  5436                           	file	"C:\Users\Administrator\Desktop\CODE1-ACE5\CODE1-FRAME WORK\CODE MPLAP\lcd.c"
  5437                           	line	106
  5438                           	global	__size_of_lcd_put_byte
  5439  00C2                     	__size_of_lcd_put_byte	equ	__end_of_lcd_put_byte-_lcd_put_byte
  5440                           	
  5441  0F3E                     _lcd_put_byte:	
  5442                           	opt	stack 3
  5443                           ; Regs used in _lcd_put_byte: [wreg+status,2+status,0]
  5444                           ;lcd_put_byte@rs stored from wreg
  5445                           	line	109
  5446  0F3E  1283               	bcf	status, 5	;RP0=0, select bank0
  5447  0F3F  1303               	bcf	status, 6	;RP1=0, select bank0
  5448  0F40  00A3               	movwf	(lcd_put_byte@rs)
  5449                           	
  5450  0F41                     l5270:	
  5451                           ;lcd.c: 107: BYTE_VAL temp;
  5452                           ;lcd.c: 109: TRISD4 = 0;
  5453  0F41  1683               	bsf	status, 5	;RP0=1, select bank1
  5454  0F42  1303               	bcf	status, 6	;RP1=0, select bank1
  5455  0F43  1208               	bcf	(1092/8)^080h,(1092)&7
  5456                           	line	110
  5457                           ;lcd.c: 110: TRISD5 = 0;
  5458  0F44  1288               	bcf	(1093/8)^080h,(1093)&7
  5459                           	line	111
  5460                           ;lcd.c: 111: TRISD6 = 0;
  5461  0F45  1308               	bcf	(1094/8)^080h,(1094)&7
  5462                           	line	112
  5463                           ;lcd.c: 112: TRISD7 = 0;
  5464  0F46  1388               	bcf	(1095/8)^080h,(1095)&7
  5465                           	line	114
  5466                           ;lcd.c: 114: RD1 = 0;
  5467  0F47  1283               	bcf	status, 5	;RP0=0, select bank0
  5468  0F48  1303               	bcf	status, 6	;RP1=0, select bank0
  5469  0F49  1088               	bcf	(65/8),(65)&7
  5470                           	line	115
  5471                           	
  5472  0F4A                     l5272:	
  5473                           ;lcd.c: 115: if(rs) RD1 = 1;
  5474  0F4A  0823               	movf	(lcd_put_byte@rs),w
  5475  0F4B  1D03               	skipz
  5476  0F4C  2F4E               	goto	u4760
  5477  0F4D  2F50               	goto	l5276
  5478  0F4E                     u4760:
  5479                           	
  5480  0F4E                     l5274:	
  5481  0F4E  1488               	bsf	(65/8),(65)&7
  5482  0F4F  2F50               	goto	l5276
  5483                           	
  5484  0F50                     l1896:	
  5485                           	line	117
  5486                           	
  5487  0F50                     l5276:	
  5488                           ;lcd.c: 117: _delay((unsigned long)((20)*(4000000/4000000.0)));
  5489                           	opt asmopt_off
  5490  0F50  3006               movlw	6
  5491  0F51  00A1               movwf	(??_lcd_put_byte+0)+0,f
  5492  0F52                     u5687:
  5493  0F52  0BA1               decfsz	(??_lcd_put_byte+0)+0,f
  5494  0F53  2F52               	goto	u5687
  5495  0F54  0064               	clrwdt
  5496                           opt asmopt_on
  5497                           
  5498                           	line	118
  5499                           	
  5500  0F55                     l5278:	
  5501                           ;lcd.c: 118: RD2 = 0;
  5502  0F55  1283               	bcf	status, 5	;RP0=0, select bank0
  5503  0F56  1303               	bcf	status, 6	;RP1=0, select bank0
  5504  0F57  1108               	bcf	(66/8),(66)&7
  5505                           	line	119
  5506                           ;lcd.c: 119: _delay((unsigned long)((20)*(4000000/4000000.0)));
  5507                           	opt asmopt_off
  5508  0F58  3006               movlw	6
  5509  0F59  00A1               movwf	(??_lcd_put_byte+0)+0,f
  5510  0F5A                     u5697:
  5511  0F5A  0BA1               decfsz	(??_lcd_put_byte+0)+0,f
  5512  0F5B  2F5A               	goto	u5697
  5513  0F5C  0064               	clrwdt
  5514                           opt asmopt_on
  5515                           
  5516                           	line	120
  5517                           	
  5518  0F5D                     l5280:	
  5519                           ;lcd.c: 120: RD3 = 0;
  5520  0F5D  1283               	bcf	status, 5	;RP0=0, select bank0
  5521  0F5E  1303               	bcf	status, 6	;RP1=0, select bank0
  5522  0F5F  1188               	bcf	(67/8),(67)&7
  5523                           	line	122
  5524                           ;lcd.c: 122: temp.Val = b;
  5525  0F60  0820               	movf	(lcd_put_byte@b),w
  5526  0F61  00A1               	movwf	(??_lcd_put_byte+0)+0
  5527  0F62  0821               	movf	(??_lcd_put_byte+0)+0,w
  5528  0F63  00A4               	movwf	(lcd_put_byte@temp)
  5529                           	line	125
  5530                           	
  5531  0F64                     l5282:	
  5532                           ;lcd.c: 125: RD4 = temp.bits.b4;
  5533  0F64  0E24               	swapf	(lcd_put_byte@temp),w
  5534  0F65  3901               	andlw	(1<<1)-1
  5535  0F66  00A1               	movwf	(??_lcd_put_byte+0)+0
  5536  0F67  0C21               	rrf	(??_lcd_put_byte+0)+0,w
  5537  0F68  1803               	btfsc	status,0
  5538  0F69  2F6B               	goto	u4771
  5539  0F6A  2F6F               	goto	u4770
  5540                           	
  5541  0F6B                     u4771:
  5542  0F6B  1283               	bcf	status, 5	;RP0=0, select bank0
  5543  0F6C  1303               	bcf	status, 6	;RP1=0, select bank0
  5544  0F6D  1608               	bsf	(68/8),(68)&7
  5545  0F6E  2F72               	goto	u4784
  5546  0F6F                     u4770:
  5547  0F6F  1283               	bcf	status, 5	;RP0=0, select bank0
  5548  0F70  1303               	bcf	status, 6	;RP1=0, select bank0
  5549  0F71  1208               	bcf	(68/8),(68)&7
  5550  0F72                     u4784:
  5551                           	line	126
  5552                           	
  5553  0F72                     l5284:	
  5554                           ;lcd.c: 126: RD5 = temp.bits.b5;
  5555  0F72  0E24               	swapf	(lcd_put_byte@temp),w
  5556  0F73  00A1               	movwf	(??_lcd_put_byte+0)+0
  5557  0F74  0C21               	rrf	(??_lcd_put_byte+0)+0,w
  5558  0F75  3901               	andlw	(1<<1)-1
  5559  0F76  00A2               	movwf	(??_lcd_put_byte+1)+0
  5560  0F77  0C22               	rrf	(??_lcd_put_byte+1)+0,w
  5561  0F78  1803               	btfsc	status,0
  5562  0F79  2F7B               	goto	u4791
  5563  0F7A  2F7F               	goto	u4790
  5564                           	
  5565  0F7B                     u4791:
  5566  0F7B  1283               	bcf	status, 5	;RP0=0, select bank0
  5567  0F7C  1303               	bcf	status, 6	;RP1=0, select bank0
  5568  0F7D  1688               	bsf	(69/8),(69)&7
  5569  0F7E  2F82               	goto	u4804
  5570  0F7F                     u4790:
  5571  0F7F  1283               	bcf	status, 5	;RP0=0, select bank0
  5572  0F80  1303               	bcf	status, 6	;RP1=0, select bank0
  5573  0F81  1288               	bcf	(69/8),(69)&7
  5574  0F82                     u4804:
  5575                           	line	127
  5576                           	
  5577  0F82                     l5286:	
  5578                           ;lcd.c: 127: RD6 = temp.bits.b6;
  5579  0F82  0E24               	swapf	(lcd_put_byte@temp),w
  5580  0F83  00A1               	movwf	(??_lcd_put_byte+0)+0
  5581  0F84  0CA1               	rrf	(??_lcd_put_byte+0)+0,f
  5582  0F85  0C21               	rrf	(??_lcd_put_byte+0)+0,w
  5583  0F86  3901               	andlw	(1<<1)-1
  5584  0F87  00A2               	movwf	(??_lcd_put_byte+1)+0
  5585  0F88  0C22               	rrf	(??_lcd_put_byte+1)+0,w
  5586  0F89  1803               	btfsc	status,0
  5587  0F8A  2F8C               	goto	u4811
  5588  0F8B  2F90               	goto	u4810
  5589                           	
  5590  0F8C                     u4811:
  5591  0F8C  1283               	bcf	status, 5	;RP0=0, select bank0
  5592  0F8D  1303               	bcf	status, 6	;RP1=0, select bank0
  5593  0F8E  1708               	bsf	(70/8),(70)&7
  5594  0F8F  2F93               	goto	u4824
  5595  0F90                     u4810:
  5596  0F90  1283               	bcf	status, 5	;RP0=0, select bank0
  5597  0F91  1303               	bcf	status, 6	;RP1=0, select bank0
  5598  0F92  1308               	bcf	(70/8),(70)&7
  5599  0F93                     u4824:
  5600                           	line	128
  5601                           	
  5602  0F93                     l5288:	
  5603                           ;lcd.c: 128: RD7 = temp.bits.b7;
  5604  0F93  0D24               	rlf	(lcd_put_byte@temp),w
  5605  0F94  0D24               	rlf	(lcd_put_byte@temp),w
  5606  0F95  3901               	andlw	1
  5607  0F96  00A1               	movwf	(??_lcd_put_byte+0)+0
  5608  0F97  0C21               	rrf	(??_lcd_put_byte+0)+0,w
  5609  0F98  1803               	btfsc	status,0
  5610  0F99  2F9B               	goto	u4831
  5611  0F9A  2F9F               	goto	u4830
  5612                           	
  5613  0F9B                     u4831:
  5614  0F9B  1283               	bcf	status, 5	;RP0=0, select bank0
  5615  0F9C  1303               	bcf	status, 6	;RP1=0, select bank0
  5616  0F9D  1788               	bsf	(71/8),(71)&7
  5617  0F9E  2FA2               	goto	u4844
  5618  0F9F                     u4830:
  5619  0F9F  1283               	bcf	status, 5	;RP0=0, select bank0
  5620  0FA0  1303               	bcf	status, 6	;RP1=0, select bank0
  5621  0FA1  1388               	bcf	(71/8),(71)&7
  5622  0FA2                     u4844:
  5623                           	line	129
  5624                           ;lcd.c: 129: _delay((unsigned long)((20)*(4000000/4000000.0)));
  5625                           	opt asmopt_off
  5626  0FA2  3006               movlw	6
  5627  0FA3  00A1               movwf	(??_lcd_put_byte+0)+0,f
  5628  0FA4                     u5707:
  5629  0FA4  0BA1               decfsz	(??_lcd_put_byte+0)+0,f
  5630  0FA5  2FA4               	goto	u5707
  5631  0FA6  0064               	clrwdt
  5632                           opt asmopt_on
  5633                           
  5634                           	line	130
  5635                           	
  5636  0FA7                     l5290:	
  5637                           ;lcd.c: 130: RD3 = 1;
  5638  0FA7  1283               	bcf	status, 5	;RP0=0, select bank0
  5639  0FA8  1303               	bcf	status, 6	;RP1=0, select bank0
  5640  0FA9  1588               	bsf	(67/8),(67)&7
  5641                           	line	131
  5642                           ;lcd.c: 131: _delay((unsigned long)((20)*(4000000/4000000.0)));
  5643                           	opt asmopt_off
  5644  0FAA  3006               movlw	6
  5645  0FAB  00A1               movwf	(??_lcd_put_byte+0)+0,f
  5646  0FAC                     u5717:
  5647  0FAC  0BA1               decfsz	(??_lcd_put_byte+0)+0,f
  5648  0FAD  2FAC               	goto	u5717
  5649  0FAE  0064               	clrwdt
  5650                           opt asmopt_on
  5651                           
  5652                           	line	132
  5653                           	
  5654  0FAF                     l5292:	
  5655                           ;lcd.c: 132: RD3 = 0;
  5656  0FAF  1283               	bcf	status, 5	;RP0=0, select bank0
  5657  0FB0  1303               	bcf	status, 6	;RP1=0, select bank0
  5658  0FB1  1188               	bcf	(67/8),(67)&7
  5659                           	line	134
  5660                           	
  5661  0FB2                     l5294:	
  5662                           ;lcd.c: 134: RD4 = temp.bits.b0;
  5663  0FB2  0824               	movf	(lcd_put_byte@temp),w
  5664  0FB3  3901               	andlw	(1<<1)-1
  5665  0FB4  00A1               	movwf	(??_lcd_put_byte+0)+0
  5666  0FB5  0C21               	rrf	(??_lcd_put_byte+0)+0,w
  5667  0FB6  1803               	btfsc	status,0
  5668  0FB7  2FB9               	goto	u4851
  5669  0FB8  2FBD               	goto	u4850
  5670                           	
  5671  0FB9                     u4851:
  5672  0FB9  1283               	bcf	status, 5	;RP0=0, select bank0
  5673  0FBA  1303               	bcf	status, 6	;RP1=0, select bank0
  5674  0FBB  1608               	bsf	(68/8),(68)&7
  5675  0FBC  2FC0               	goto	u4864
  5676  0FBD                     u4850:
  5677  0FBD  1283               	bcf	status, 5	;RP0=0, select bank0
  5678  0FBE  1303               	bcf	status, 6	;RP1=0, select bank0
  5679  0FBF  1208               	bcf	(68/8),(68)&7
  5680  0FC0                     u4864:
  5681                           	line	135
  5682                           	
  5683  0FC0                     l5296:	
  5684                           ;lcd.c: 135: RD5 = temp.bits.b1;
  5685  0FC0  0C24               	rrf	(lcd_put_byte@temp),w
  5686  0FC1  3901               	andlw	(1<<1)-1
  5687  0FC2  00A1               	movwf	(??_lcd_put_byte+0)+0
  5688  0FC3  0C21               	rrf	(??_lcd_put_byte+0)+0,w
  5689  0FC4  1803               	btfsc	status,0
  5690  0FC5  2FC7               	goto	u4871
  5691  0FC6  2FCB               	goto	u4870
  5692                           	
  5693  0FC7                     u4871:
  5694  0FC7  1283               	bcf	status, 5	;RP0=0, select bank0
  5695  0FC8  1303               	bcf	status, 6	;RP1=0, select bank0
  5696  0FC9  1688               	bsf	(69/8),(69)&7
  5697  0FCA  2FCE               	goto	u4884
  5698  0FCB                     u4870:
  5699  0FCB  1283               	bcf	status, 5	;RP0=0, select bank0
  5700  0FCC  1303               	bcf	status, 6	;RP1=0, select bank0
  5701  0FCD  1288               	bcf	(69/8),(69)&7
  5702  0FCE                     u4884:
  5703                           	line	136
  5704                           	
  5705  0FCE                     l5298:	
  5706                           ;lcd.c: 136: RD6 = temp.bits.b2;
  5707  0FCE  0C24               	rrf	(lcd_put_byte@temp),w
  5708  0FCF  00A1               	movwf	(??_lcd_put_byte+0)+0
  5709  0FD0  0C21               	rrf	(??_lcd_put_byte+0)+0,w
  5710  0FD1  3901               	andlw	(1<<1)-1
  5711  0FD2  00A2               	movwf	(??_lcd_put_byte+1)+0
  5712  0FD3  0C22               	rrf	(??_lcd_put_byte+1)+0,w
  5713  0FD4  1803               	btfsc	status,0
  5714  0FD5  2FD7               	goto	u4891
  5715  0FD6  2FDB               	goto	u4890
  5716                           	
  5717  0FD7                     u4891:
  5718  0FD7  1283               	bcf	status, 5	;RP0=0, select bank0
  5719  0FD8  1303               	bcf	status, 6	;RP1=0, select bank0
  5720  0FD9  1708               	bsf	(70/8),(70)&7
  5721  0FDA  2FDE               	goto	u4904
  5722  0FDB                     u4890:
  5723  0FDB  1283               	bcf	status, 5	;RP0=0, select bank0
  5724  0FDC  1303               	bcf	status, 6	;RP1=0, select bank0
  5725  0FDD  1308               	bcf	(70/8),(70)&7
  5726  0FDE                     u4904:
  5727                           	line	137
  5728                           	
  5729  0FDE                     l5300:	
  5730                           ;lcd.c: 137: RD7 = temp.bits.b3;
  5731  0FDE  0C24               	rrf	(lcd_put_byte@temp),w
  5732  0FDF  00A1               	movwf	(??_lcd_put_byte+0)+0
  5733  0FE0  0CA1               	rrf	(??_lcd_put_byte+0)+0,f
  5734  0FE1  0C21               	rrf	(??_lcd_put_byte+0)+0,w
  5735  0FE2  3901               	andlw	(1<<1)-1
  5736  0FE3  00A2               	movwf	(??_lcd_put_byte+1)+0
  5737  0FE4  0C22               	rrf	(??_lcd_put_byte+1)+0,w
  5738  0FE5  1803               	btfsc	status,0
  5739  0FE6  2FE8               	goto	u4911
  5740  0FE7  2FEC               	goto	u4910
  5741                           	
  5742  0FE8                     u4911:
  5743  0FE8  1283               	bcf	status, 5	;RP0=0, select bank0
  5744  0FE9  1303               	bcf	status, 6	;RP1=0, select bank0
  5745  0FEA  1788               	bsf	(71/8),(71)&7
  5746  0FEB  2FEF               	goto	u4924
  5747  0FEC                     u4910:
  5748  0FEC  1283               	bcf	status, 5	;RP0=0, select bank0
  5749  0FED  1303               	bcf	status, 6	;RP1=0, select bank0
  5750  0FEE  1388               	bcf	(71/8),(71)&7
  5751  0FEF                     u4924:
  5752                           	line	138
  5753                           ;lcd.c: 138: _delay((unsigned long)((20)*(4000000/4000000.0)));
  5754                           	opt asmopt_off
  5755  0FEF  3006               movlw	6
  5756  0FF0  00A1               movwf	(??_lcd_put_byte+0)+0,f
  5757  0FF1                     u5727:
  5758  0FF1  0BA1               decfsz	(??_lcd_put_byte+0)+0,f
  5759  0FF2  2FF1               	goto	u5727
  5760  0FF3  0064               	clrwdt
  5761                           opt asmopt_on
  5762                           
  5763                           	line	139
  5764                           	
  5765  0FF4                     l5302:	
  5766                           ;lcd.c: 139: RD3 = 1;
  5767  0FF4  1283               	bcf	status, 5	;RP0=0, select bank0
  5768  0FF5  1303               	bcf	status, 6	;RP1=0, select bank0
  5769  0FF6  1588               	bsf	(67/8),(67)&7
  5770                           	line	140
  5771                           ;lcd.c: 140: _delay((unsigned long)((20)*(4000000/4000000.0)));
  5772                           	opt asmopt_off
  5773  0FF7  3006               movlw	6
  5774  0FF8  00A1               movwf	(??_lcd_put_byte+0)+0,f
  5775  0FF9                     u5737:
  5776  0FF9  0BA1               decfsz	(??_lcd_put_byte+0)+0,f
  5777  0FFA  2FF9               	goto	u5737
  5778  0FFB  0064               	clrwdt
  5779                           opt asmopt_on
  5780                           
  5781                           	line	141
  5782                           	
  5783  0FFC                     l5304:	
  5784                           ;lcd.c: 141: RD3 = 0;
  5785  0FFC  1283               	bcf	status, 5	;RP0=0, select bank0
  5786  0FFD  1303               	bcf	status, 6	;RP1=0, select bank0
  5787  0FFE  1188               	bcf	(67/8),(67)&7
  5788                           	line	142
  5789                           	
  5790  0FFF                     l1897:	
  5791  0FFF  0008               	return
  5792                           	opt stack 0
  5793                           GLOBAL	__end_of_lcd_put_byte
  5794  1000                     	__end_of_lcd_put_byte:
  5795 ;; =============== function _lcd_put_byte ends ============
  5796                           
  5797                           	signat	_lcd_put_byte,8312
  5798                           	global	_I2C_write
  5799                           psect	text1000,local,class=CODE,delta=2
  5800                           global __ptext1000
  5801  0B37                     __ptext1000:
  5802                           
  5803 ;; *************** function _I2C_write *****************
  5804 ;; Defined at:
  5805 ;;		line 154 in file "C:\Users\Administrator\Desktop\CODE1-ACE5\CODE1-FRAME WORK\CODE MPLAP\main.c"
  5806 ;; Parameters:    Size  Location     Type
  5807 ;;  d               1    wreg     unsigned char 
  5808 ;; Auto vars:     Size  Location     Type
  5809 ;;  d               1    1[BANK0 ] unsigned char 
  5810 ;;  x               1    2[BANK0 ] unsigned char 
  5811 ;; Return value:  Size  Location     Type
  5812 ;;		None               void
  5813 ;; Registers used:
  5814 ;;		wreg, status,2, status,0, pclath, cstack
  5815 ;; Tracked objects:
  5816 ;;		On entry : 0/0
  5817 ;;		On exit  : 0/0
  5818 ;;		Unchanged: 0/0
  5819 ;; Data sizes:     COMMON   BANK0   BANK1   BANK3   BANK2
  5820 ;;      Params:         0       0       0       0       0
  5821 ;;      Locals:         0       2       0       0       0
  5822 ;;      Temps:          0       1       0       0       0
  5823 ;;      Totals:         0       3       0       0       0
  5824 ;;Total ram usage:        3 bytes
  5825 ;; Hardware stack levels used:    1
  5826 ;; Hardware stack levels required when called:    2
  5827 ;; This function calls:
  5828 ;;		_i2c_dly
  5829 ;; This function is called by:
  5830 ;;		_BH1750_write
  5831 ;;		_BH1750_read
  5832 ;; This function uses a non-reentrant model
  5833 ;;
  5834                           psect	text1000
  5835                           	file	"C:\Users\Administrator\Desktop\CODE1-ACE5\CODE1-FRAME WORK\CODE MPLAP\main.c"
  5836                           	line	154
  5837                           	global	__size_of_I2C_write
  5838  0038                     	__size_of_I2C_write	equ	__end_of_I2C_write-_I2C_write
  5839                           	
  5840  0B37                     _I2C_write:	
  5841                           	opt	stack 4
  5842                           ; Regs used in _I2C_write: [wreg+status,2+status,0+pclath+cstack]
  5843                           ;I2C_write@d stored from wreg
  5844                           	line	156
  5845  0B37  1283               	bcf	status, 5	;RP0=0, select bank0
  5846  0B38  1303               	bcf	status, 6	;RP1=0, select bank0
  5847  0B39  00A1               	movwf	(I2C_write@d)
  5848                           	line	157
  5849                           	
  5850  0B3A                     l5252:	
  5851                           ;main.c: 155: char x;
  5852                           ;main.c: 156: static bit b;
  5853                           ;main.c: 157: for(x=8; x; x--) {
  5854  0B3A  3008               	movlw	(08h)
  5855  0B3B  00A0               	movwf	(??_I2C_write+0)+0
  5856  0B3C  0820               	movf	(??_I2C_write+0)+0,w
  5857  0B3D  00A2               	movwf	(I2C_write@x)
  5858  0B3E  2B56               	goto	l989
  5859                           	
  5860  0B3F                     l990:	
  5861                           	line	158
  5862                           ;main.c: 158: if(d&0x80) TRISC4 = 1;
  5863  0B3F  1FA1               	btfss	(I2C_write@d),(7)&7
  5864  0B40  2B42               	goto	u4731
  5865  0B41  2B43               	goto	u4730
  5866  0B42                     u4731:
  5867  0B42  2B47               	goto	l991
  5868  0B43                     u4730:
  5869                           	
  5870  0B43                     l5254:	
  5871  0B43  1683               	bsf	status, 5	;RP0=1, select bank1
  5872  0B44  1303               	bcf	status, 6	;RP1=0, select bank1
  5873  0B45  1607               	bsf	(1084/8)^080h,(1084)&7
  5874  0B46  2B4A               	goto	l992
  5875                           	line	159
  5876                           	
  5877  0B47                     l991:	
  5878                           ;main.c: 159: else TRISC4 = 0;
  5879  0B47  1683               	bsf	status, 5	;RP0=1, select bank1
  5880  0B48  1303               	bcf	status, 6	;RP1=0, select bank1
  5881  0B49  1207               	bcf	(1084/8)^080h,(1084)&7
  5882                           	
  5883  0B4A                     l992:	
  5884                           	line	160
  5885                           ;main.c: 160: TRISC3 = 1;
  5886  0B4A  1587               	bsf	(1083/8)^080h,(1083)&7
  5887                           	line	161
  5888                           	
  5889  0B4B                     l5256:	
  5890                           ;main.c: 161: d <<= 1;
  5891  0B4B  1003               	clrc
  5892  0B4C  1283               	bcf	status, 5	;RP0=0, select bank0
  5893  0B4D  1303               	bcf	status, 6	;RP1=0, select bank0
  5894  0B4E  0DA1               	rlf	(I2C_write@d),f
  5895                           
  5896                           	line	162
  5897                           	
  5898  0B4F                     l5258:	
  5899                           ;main.c: 162: TRISC3 = 0;
  5900  0B4F  1683               	bsf	status, 5	;RP0=1, select bank1
  5901  0B50  1303               	bcf	status, 6	;RP1=0, select bank1
  5902  0B51  1187               	bcf	(1083/8)^080h,(1083)&7
  5903                           	line	157
  5904                           	
  5905  0B52                     l5260:	
  5906  0B52  3001               	movlw	low(01h)
  5907  0B53  1283               	bcf	status, 5	;RP0=0, select bank0
  5908  0B54  1303               	bcf	status, 6	;RP1=0, select bank0
  5909  0B55  02A2               	subwf	(I2C_write@x),f
  5910                           	
  5911  0B56                     l989:	
  5912  0B56  08A2               	movf	(I2C_write@x),f
  5913  0B57  1D03               	skipz
  5914  0B58  2B5A               	goto	u4741
  5915  0B59  2B5B               	goto	u4740
  5916  0B5A                     u4741:
  5917  0B5A  2B3F               	goto	l990
  5918  0B5B                     u4740:
  5919                           	
  5920  0B5B                     l993:	
  5921                           	line	164
  5922                           ;main.c: 163: }
  5923                           ;main.c: 164: TRISC4 = 1;
  5924  0B5B  1683               	bsf	status, 5	;RP0=1, select bank1
  5925  0B5C  1303               	bcf	status, 6	;RP1=0, select bank1
  5926  0B5D  1607               	bsf	(1084/8)^080h,(1084)&7
  5927                           	line	165
  5928                           ;main.c: 165: TRISC3 = 1;
  5929  0B5E  1587               	bsf	(1083/8)^080h,(1083)&7
  5930                           	line	166
  5931                           	
  5932  0B5F                     l5262:	
  5933                           ;main.c: 166: i2c_dly();
  5934  0B5F  120A  118A  2003   	fcall	_i2c_dly
              120A  158A         
  5935                           	line	167
  5936                           	
  5937  0B64                     l5264:	
  5938                           ;main.c: 167: b = RC4;
  5939  0B64  1079               	bcf	(I2C_write@b/8),(I2C_write@b)&7
  5940  0B65  1283               	bcf	status, 5	;RP0=0, select bank0
  5941  0B66  1303               	bcf	status, 6	;RP1=0, select bank0
  5942  0B67  1E07               	btfss	(60/8),(60)&7
  5943  0B68  2B6A               	goto	u4755
  5944  0B69  1479               	bsf	(I2C_write@b/8),(I2C_write@b)&7
  5945  0B6A                     u4755:
  5946                           
  5947                           	line	169
  5948                           	
  5949  0B6A                     l5266:	
  5950                           ;main.c: 169: TRISC3 = 0;
  5951  0B6A  1683               	bsf	status, 5	;RP0=1, select bank1
  5952  0B6B  1303               	bcf	status, 6	;RP1=0, select bank1
  5953  0B6C  1187               	bcf	(1083/8)^080h,(1083)&7
  5954  0B6D  2B6E               	goto	l994
  5955                           	line	170
  5956                           	
  5957  0B6E                     l5268:	
  5958                           	line	171
  5959                           ;main.c: 170: return b;
  5960                           ;	Return value of _I2C_write is never used
  5961                           	
  5962  0B6E                     l994:	
  5963  0B6E  0008               	return
  5964                           	opt stack 0
  5965                           GLOBAL	__end_of_I2C_write
  5966  0B6F                     	__end_of_I2C_write:
  5967 ;; =============== function _I2C_write ends ============
  5968                           
  5969                           	signat	_I2C_write,4216
  5970                           	global	_I2C_read
  5971                           psect	text1001,local,class=CODE,delta=2
  5972                           global __ptext1001
  5973  07A3                     __ptext1001:
  5974                           
  5975 ;; *************** function _I2C_read *****************
  5976 ;; Defined at:
  5977 ;;		line 129 in file "C:\Users\Administrator\Desktop\CODE1-ACE5\CODE1-FRAME WORK\CODE MPLAP\main.c"
  5978 ;; Parameters:    Size  Location     Type
  5979 ;;  ack             1    wreg     unsigned char 
  5980 ;; Auto vars:     Size  Location     Type
  5981 ;;  ack             1    1[BANK0 ] unsigned char 
  5982 ;;  x               1    3[BANK0 ] unsigned char 
  5983 ;;  d               1    2[BANK0 ] unsigned char 
  5984 ;; Return value:  Size  Location     Type
  5985 ;;                  1    wreg      unsigned char 
  5986 ;; Registers used:
  5987 ;;		wreg, status,2, status,0, pclath, cstack
  5988 ;; Tracked objects:
  5989 ;;		On entry : 0/0
  5990 ;;		On exit  : 0/0
  5991 ;;		Unchanged: 0/0
  5992 ;; Data sizes:     COMMON   BANK0   BANK1   BANK3   BANK2
  5993 ;;      Params:         0       0       0       0       0
  5994 ;;      Locals:         0       3       0       0       0
  5995 ;;      Temps:          0       1       0       0       0
  5996 ;;      Totals:         0       4       0       0       0
  5997 ;;Total ram usage:        4 bytes
  5998 ;; Hardware stack levels used:    1
  5999 ;; Hardware stack levels required when called:    2
  6000 ;; This function calls:
  6001 ;;		_i2c_dly
  6002 ;; This function is called by:
  6003 ;;		_BH1750_read
  6004 ;; This function uses a non-reentrant model
  6005 ;;
  6006                           psect	text1001
  6007                           	file	"C:\Users\Administrator\Desktop\CODE1-ACE5\CODE1-FRAME WORK\CODE MPLAP\main.c"
  6008                           	line	129
  6009                           	global	__size_of_I2C_read
  6010  005D                     	__size_of_I2C_read	equ	__end_of_I2C_read-_I2C_read
  6011                           	
  6012  07A3                     _I2C_read:	
  6013                           	opt	stack 4
  6014                           ; Regs used in _I2C_read: [wreg+status,2+status,0+pclath+cstack]
  6015                           ;I2C_read@ack stored from wreg
  6016  07A3  1283               	bcf	status, 5	;RP0=0, select bank0
  6017  07A4  1303               	bcf	status, 6	;RP1=0, select bank0
  6018  07A5  00A1               	movwf	(I2C_read@ack)
  6019                           	line	130
  6020                           	
  6021  07A6                     l5214:	
  6022                           ;main.c: 130: char x, d=0;
  6023  07A6  1003               	clrc
  6024  07A7  3000               	movlw	0
  6025  07A8  1803               	btfsc	status,0
  6026  07A9  3001               	movlw	1
  6027  07AA  00A2               	movwf	(I2C_read@d)
  6028                           	line	131
  6029                           	
  6030  07AB                     l5216:	
  6031                           ;main.c: 131: TRISC4 = 1;
  6032  07AB  1683               	bsf	status, 5	;RP0=1, select bank1
  6033  07AC  1303               	bcf	status, 6	;RP1=0, select bank1
  6034  07AD  1607               	bsf	(1084/8)^080h,(1084)&7
  6035                           	line	132
  6036                           ;main.c: 132: for(x=0; x<8; x++)
  6037  07AE  1003               	clrc
  6038  07AF  3000               	movlw	0
  6039  07B0  1803               	btfsc	status,0
  6040  07B1  3001               	movlw	1
  6041  07B2  1283               	bcf	status, 5	;RP0=0, select bank0
  6042  07B3  1303               	bcf	status, 6	;RP1=0, select bank0
  6043  07B4  00A3               	movwf	(I2C_read@x)
  6044                           	
  6045  07B5                     l5218:	
  6046  07B5  3008               	movlw	(08h)
  6047  07B6  0223               	subwf	(I2C_read@x),w
  6048  07B7  1C03               	skipc
  6049  07B8  2FBA               	goto	u4681
  6050  07B9  2FBB               	goto	u4680
  6051  07BA                     u4681:
  6052  07BA  2FBD               	goto	l5222
  6053  07BB                     u4680:
  6054  07BB  2FE6               	goto	l5238
  6055                           	
  6056  07BC                     l5220:	
  6057  07BC  2FE6               	goto	l5238
  6058                           	line	133
  6059                           	
  6060  07BD                     l977:	
  6061                           	line	134
  6062                           	
  6063  07BD                     l5222:	
  6064                           ;main.c: 133: {
  6065                           ;main.c: 134: d <<= 1;
  6066  07BD  1003               	clrc
  6067  07BE  0DA2               	rlf	(I2C_read@d),f
  6068                           
  6069  07BF  2FC0               	goto	l5224
  6070                           	line	135
  6071                           ;main.c: 135: do
  6072                           	
  6073  07C0                     l979:	
  6074                           	line	137
  6075                           	
  6076  07C0                     l5224:	
  6077                           ;main.c: 136: {
  6078                           ;main.c: 137: TRISC3 = 1;
  6079  07C0  1683               	bsf	status, 5	;RP0=1, select bank1
  6080  07C1  1303               	bcf	status, 6	;RP1=0, select bank1
  6081  07C2  1587               	bsf	(1083/8)^080h,(1083)&7
  6082                           	line	138
  6083                           	
  6084  07C3                     l5226:	
  6085                           ;main.c: 138: }while(RC3==0);
  6086  07C3  1283               	bcf	status, 5	;RP0=0, select bank0
  6087  07C4  1303               	bcf	status, 6	;RP1=0, select bank0
  6088  07C5  1D87               	btfss	(59/8),(59)&7
  6089  07C6  2FC8               	goto	u4691
  6090  07C7  2FC9               	goto	u4690
  6091  07C8                     u4691:
  6092  07C8  2FC0               	goto	l5224
  6093  07C9                     u4690:
  6094  07C9  2FCA               	goto	l5228
  6095                           	
  6096  07CA                     l980:	
  6097                           	line	140
  6098                           	
  6099  07CA                     l5228:	
  6100                           ;main.c: 140: i2c_dly();
  6101  07CA  120A  118A  2003   	fcall	_i2c_dly
              120A  118A         
  6102                           	line	141
  6103                           	
  6104  07CF                     l5230:	
  6105                           ;main.c: 141: if(RC4) d |= 1;
  6106  07CF  1283               	bcf	status, 5	;RP0=0, select bank0
  6107  07D0  1303               	bcf	status, 6	;RP1=0, select bank0
  6108  07D1  1E07               	btfss	(60/8),(60)&7
  6109  07D2  2FD4               	goto	u4701
  6110  07D3  2FD5               	goto	u4700
  6111  07D4                     u4701:
  6112  07D4  2FD6               	goto	l981
  6113  07D5                     u4700:
  6114                           	
  6115  07D5                     l5232:	
  6116  07D5  1422               	bsf	(I2C_read@d)+(0/8),(0)&7
  6117                           	
  6118  07D6                     l981:	
  6119                           	line	142
  6120                           ;main.c: 142: TRISC3 = 0;
  6121  07D6  1683               	bsf	status, 5	;RP0=1, select bank1
  6122  07D7  1303               	bcf	status, 6	;RP1=0, select bank1
  6123  07D8  1187               	bcf	(1083/8)^080h,(1083)&7
  6124                           	line	132
  6125                           	
  6126  07D9                     l5234:	
  6127  07D9  3001               	movlw	(01h)
  6128  07DA  1283               	bcf	status, 5	;RP0=0, select bank0
  6129  07DB  1303               	bcf	status, 6	;RP1=0, select bank0
  6130  07DC  00A0               	movwf	(??_I2C_read+0)+0
  6131  07DD  0820               	movf	(??_I2C_read+0)+0,w
  6132  07DE  07A3               	addwf	(I2C_read@x),f
  6133                           	
  6134  07DF                     l5236:	
  6135  07DF  3008               	movlw	(08h)
  6136  07E0  0223               	subwf	(I2C_read@x),w
  6137  07E1  1C03               	skipc
  6138  07E2  2FE4               	goto	u4711
  6139  07E3  2FE5               	goto	u4710
  6140  07E4                     u4711:
  6141  07E4  2FBD               	goto	l5222
  6142  07E5                     u4710:
  6143  07E5  2FE6               	goto	l5238
  6144                           	
  6145  07E6                     l978:	
  6146                           	line	144
  6147                           	
  6148  07E6                     l5238:	
  6149                           ;main.c: 143: }
  6150                           ;main.c: 144: if(ack) TRISC4 = 0;
  6151  07E6  0821               	movf	(I2C_read@ack),w
  6152  07E7  1D03               	skipz
  6153  07E8  2FEA               	goto	u4720
  6154  07E9  2FEE               	goto	l982
  6155  07EA                     u4720:
  6156                           	
  6157  07EA                     l5240:	
  6158  07EA  1683               	bsf	status, 5	;RP0=1, select bank1
  6159  07EB  1303               	bcf	status, 6	;RP1=0, select bank1
  6160  07EC  1207               	bcf	(1084/8)^080h,(1084)&7
  6161  07ED  2FF1               	goto	l983
  6162                           	line	145
  6163                           	
  6164  07EE                     l982:	
  6165                           ;main.c: 145: else TRISC4 = 1;
  6166  07EE  1683               	bsf	status, 5	;RP0=1, select bank1
  6167  07EF  1303               	bcf	status, 6	;RP1=0, select bank1
  6168  07F0  1607               	bsf	(1084/8)^080h,(1084)&7
  6169                           	
  6170  07F1                     l983:	
  6171                           	line	146
  6172                           ;main.c: 146: TRISC3 = 1;
  6173  07F1  1587               	bsf	(1083/8)^080h,(1083)&7
  6174                           	line	147
  6175                           	
  6176  07F2                     l5242:	
  6177                           ;main.c: 147: i2c_dly();
  6178  07F2  120A  118A  2003   	fcall	_i2c_dly
              120A  118A         
  6179                           	line	148
  6180                           	
  6181  07F7                     l5244:	
  6182                           ;main.c: 148: TRISC3 = 0;
  6183  07F7  1683               	bsf	status, 5	;RP0=1, select bank1
  6184  07F8  1303               	bcf	status, 6	;RP1=0, select bank1
  6185  07F9  1187               	bcf	(1083/8)^080h,(1083)&7
  6186                           	line	149
  6187                           	
  6188  07FA                     l5246:	
  6189                           ;main.c: 149: TRISC4 = 1;
  6190  07FA  1607               	bsf	(1084/8)^080h,(1084)&7
  6191                           	line	150
  6192                           	
  6193  07FB                     l5248:	
  6194                           ;main.c: 150: return d;
  6195  07FB  1283               	bcf	status, 5	;RP0=0, select bank0
  6196  07FC  1303               	bcf	status, 6	;RP1=0, select bank0
  6197  07FD  0822               	movf	(I2C_read@d),w
  6198  07FE  2FFF               	goto	l984
  6199                           	
  6200  07FF                     l5250:	
  6201                           	line	151
  6202                           	
  6203  07FF                     l984:	
  6204  07FF  0008               	return
  6205                           	opt stack 0
  6206                           GLOBAL	__end_of_I2C_read
  6207  0800                     	__end_of_I2C_read:
  6208 ;; =============== function _I2C_read ends ============
  6209                           
  6210                           	signat	_I2C_read,4217
  6211                           	global	_I2C_stop
  6212                           psect	text1002,local,class=CODE,delta=2
  6213                           global __ptext1002
  6214  09EA                     __ptext1002:
  6215                           
  6216 ;; *************** function _I2C_stop *****************
  6217 ;; Defined at:
  6218 ;;		line 120 in file "C:\Users\Administrator\Desktop\CODE1-ACE5\CODE1-FRAME WORK\CODE MPLAP\main.c"
  6219 ;; Parameters:    Size  Location     Type
  6220 ;;		None
  6221 ;; Auto vars:     Size  Location     Type
  6222 ;;		None
  6223 ;; Return value:  Size  Location     Type
  6224 ;;		None               void
  6225 ;; Registers used:
  6226 ;;		status,2, status,0, pclath, cstack
  6227 ;; Tracked objects:
  6228 ;;		On entry : 0/0
  6229 ;;		On exit  : 0/0
  6230 ;;		Unchanged: 0/0
  6231 ;; Data sizes:     COMMON   BANK0   BANK1   BANK3   BANK2
  6232 ;;      Params:         0       0       0       0       0
  6233 ;;      Locals:         0       0       0       0       0
  6234 ;;      Temps:          0       0       0       0       0
  6235 ;;      Totals:         0       0       0       0       0
  6236 ;;Total ram usage:        0 bytes
  6237 ;; Hardware stack levels used:    1
  6238 ;; Hardware stack levels required when called:    2
  6239 ;; This function calls:
  6240 ;;		_i2c_dly
  6241 ;; This function is called by:
  6242 ;;		_BH1750_write
  6243 ;;		_BH1750_read
  6244 ;; This function uses a non-reentrant model
  6245 ;;
  6246                           psect	text1002
  6247                           	file	"C:\Users\Administrator\Desktop\CODE1-ACE5\CODE1-FRAME WORK\CODE MPLAP\main.c"
  6248                           	line	120
  6249                           	global	__size_of_I2C_stop
  6250  0019                     	__size_of_I2C_stop	equ	__end_of_I2C_stop-_I2C_stop
  6251                           	
  6252  09EA                     _I2C_stop:	
  6253                           	opt	stack 4
  6254                           ; Regs used in _I2C_stop: [status,2+status,0+pclath+cstack]
  6255                           	line	121
  6256                           	
  6257  09EA                     l5206:	
  6258                           ;main.c: 121: TRISC4 = 0;
  6259  09EA  1683               	bsf	status, 5	;RP0=1, select bank1
  6260  09EB  1303               	bcf	status, 6	;RP1=0, select bank1
  6261  09EC  1207               	bcf	(1084/8)^080h,(1084)&7
  6262                           	line	122
  6263                           	
  6264  09ED                     l5208:	
  6265                           ;main.c: 122: i2c_dly();
  6266  09ED  120A  118A  2003   	fcall	_i2c_dly
              120A  158A         
  6267                           	line	123
  6268                           	
  6269  09F2                     l5210:	
  6270                           ;main.c: 123: TRISC3 = 1;
  6271  09F2  1683               	bsf	status, 5	;RP0=1, select bank1
  6272  09F3  1303               	bcf	status, 6	;RP1=0, select bank1
  6273  09F4  1587               	bsf	(1083/8)^080h,(1083)&7
  6274                           	line	124
  6275                           ;main.c: 124: i2c_dly();
  6276  09F5  120A  118A  2003   	fcall	_i2c_dly
              120A  158A         
  6277                           	line	125
  6278                           	
  6279  09FA                     l5212:	
  6280                           ;main.c: 125: TRISC4 = 1;
  6281  09FA  1683               	bsf	status, 5	;RP0=1, select bank1
  6282  09FB  1303               	bcf	status, 6	;RP1=0, select bank1
  6283  09FC  1607               	bsf	(1084/8)^080h,(1084)&7
  6284                           	line	126
  6285                           ;main.c: 126: i2c_dly();
  6286  09FD  120A  118A  2003   	fcall	_i2c_dly
              120A  158A         
  6287                           	line	127
  6288                           	
  6289  0A02                     l974:	
  6290  0A02  0008               	return
  6291                           	opt stack 0
  6292                           GLOBAL	__end_of_I2C_stop
  6293  0A03                     	__end_of_I2C_stop:
  6294 ;; =============== function _I2C_stop ends ============
  6295                           
  6296                           	signat	_I2C_stop,88
  6297                           	global	_I2C_start
  6298                           psect	text1003,local,class=CODE,delta=2
  6299                           global __ptext1003
  6300  0A38                     __ptext1003:
  6301                           
  6302 ;; *************** function _I2C_start *****************
  6303 ;; Defined at:
  6304 ;;		line 108 in file "C:\Users\Administrator\Desktop\CODE1-ACE5\CODE1-FRAME WORK\CODE MPLAP\main.c"
  6305 ;; Parameters:    Size  Location     Type
  6306 ;;		None
  6307 ;; Auto vars:     Size  Location     Type
  6308 ;;		None
  6309 ;; Return value:  Size  Location     Type
  6310 ;;		None               void
  6311 ;; Registers used:
  6312 ;;		status,2, status,0, pclath, cstack
  6313 ;; Tracked objects:
  6314 ;;		On entry : 0/0
  6315 ;;		On exit  : 0/0
  6316 ;;		Unchanged: 0/0
  6317 ;; Data sizes:     COMMON   BANK0   BANK1   BANK3   BANK2
  6318 ;;      Params:         0       0       0       0       0
  6319 ;;      Locals:         0       0       0       0       0
  6320 ;;      Temps:          0       0       0       0       0
  6321 ;;      Totals:         0       0       0       0       0
  6322 ;;Total ram usage:        0 bytes
  6323 ;; Hardware stack levels used:    1
  6324 ;; Hardware stack levels required when called:    2
  6325 ;; This function calls:
  6326 ;;		_i2c_dly
  6327 ;; This function is called by:
  6328 ;;		_BH1750_write
  6329 ;;		_BH1750_read
  6330 ;; This function uses a non-reentrant model
  6331 ;;
  6332                           psect	text1003
  6333                           	file	"C:\Users\Administrator\Desktop\CODE1-ACE5\CODE1-FRAME WORK\CODE MPLAP\main.c"
  6334                           	line	108
  6335                           	global	__size_of_I2C_start
  6336  0021                     	__size_of_I2C_start	equ	__end_of_I2C_start-_I2C_start
  6337                           	
  6338  0A38                     _I2C_start:	
  6339                           	opt	stack 4
  6340                           ; Regs used in _I2C_start: [status,2+status,0+pclath+cstack]
  6341                           	line	109
  6342                           	
  6343  0A38                     l5196:	
  6344                           ;main.c: 109: TRISC4 = 1;
  6345  0A38  1683               	bsf	status, 5	;RP0=1, select bank1
  6346  0A39  1303               	bcf	status, 6	;RP1=0, select bank1
  6347  0A3A  1607               	bsf	(1084/8)^080h,(1084)&7
  6348                           	line	110
  6349                           	
  6350  0A3B                     l5198:	
  6351                           ;main.c: 110: i2c_dly();
  6352  0A3B  120A  118A  2003   	fcall	_i2c_dly
              120A  158A         
  6353                           	line	111
  6354                           	
  6355  0A40                     l5200:	
  6356                           ;main.c: 111: TRISC3 = 1;
  6357  0A40  1683               	bsf	status, 5	;RP0=1, select bank1
  6358  0A41  1303               	bcf	status, 6	;RP1=0, select bank1
  6359  0A42  1587               	bsf	(1083/8)^080h,(1083)&7
  6360                           	line	112
  6361                           ;main.c: 112: i2c_dly();
  6362  0A43  120A  118A  2003   	fcall	_i2c_dly
              120A  158A         
  6363                           	line	113
  6364                           	
  6365  0A48                     l5202:	
  6366                           ;main.c: 113: TRISC4 = 0;
  6367  0A48  1683               	bsf	status, 5	;RP0=1, select bank1
  6368  0A49  1303               	bcf	status, 6	;RP1=0, select bank1
  6369  0A4A  1207               	bcf	(1084/8)^080h,(1084)&7
  6370                           	line	114
  6371                           ;main.c: 114: i2c_dly();
  6372  0A4B  120A  118A  2003   	fcall	_i2c_dly
              120A  158A         
  6373                           	line	115
  6374                           	
  6375  0A50                     l5204:	
  6376                           ;main.c: 115: TRISC3 = 0;
  6377  0A50  1683               	bsf	status, 5	;RP0=1, select bank1
  6378  0A51  1303               	bcf	status, 6	;RP1=0, select bank1
  6379  0A52  1187               	bcf	(1083/8)^080h,(1083)&7
  6380                           	line	116
  6381                           ;main.c: 116: i2c_dly();
  6382  0A53  120A  118A  2003   	fcall	_i2c_dly
              120A  158A         
  6383                           	line	117
  6384                           	
  6385  0A58                     l971:	
  6386  0A58  0008               	return
  6387                           	opt stack 0
  6388                           GLOBAL	__end_of_I2C_start
  6389  0A59                     	__end_of_I2C_start:
  6390 ;; =============== function _I2C_start ends ============
  6391                           
  6392                           	signat	_I2C_start,88
  6393                           	global	_delay_ms
  6394                           psect	text1004,local,class=CODE,delta=2
  6395                           global __ptext1004
  6396  0A7E                     __ptext1004:
  6397                           
  6398 ;; *************** function _delay_ms *****************
  6399 ;; Defined at:
  6400 ;;		line 93 in file "C:\Users\Administrator\Desktop\CODE1-ACE5\CODE1-FRAME WORK\CODE MPLAP\main.c"
  6401 ;; Parameters:    Size  Location     Type
  6402 ;;  x               2    0[BANK0 ] int 
  6403 ;; Auto vars:     Size  Location     Type
  6404 ;;  i               2    3[BANK0 ] int 
  6405 ;; Return value:  Size  Location     Type
  6406 ;;		None               void
  6407 ;; Registers used:
  6408 ;;		wreg
  6409 ;; Tracked objects:
  6410 ;;		On entry : 0/0
  6411 ;;		On exit  : 0/0
  6412 ;;		Unchanged: 0/0
  6413 ;; Data sizes:     COMMON   BANK0   BANK1   BANK3   BANK2
  6414 ;;      Params:         0       2       0       0       0
  6415 ;;      Locals:         0       2       0       0       0
  6416 ;;      Temps:          0       1       0       0       0
  6417 ;;      Totals:         0       5       0       0       0
  6418 ;;Total ram usage:        5 bytes
  6419 ;; Hardware stack levels used:    1
  6420 ;; Hardware stack levels required when called:    1
  6421 ;; This function calls:
  6422 ;;		Nothing
  6423 ;; This function is called by:
  6424 ;;		_xu_ly_lux
  6425 ;;		_send_lux
  6426 ;;		_main
  6427 ;;		_BH1750_init
  6428 ;; This function uses a non-reentrant model
  6429 ;;
  6430                           psect	text1004
  6431                           	file	"C:\Users\Administrator\Desktop\CODE1-ACE5\CODE1-FRAME WORK\CODE MPLAP\main.c"
  6432                           	line	93
  6433                           	global	__size_of_delay_ms
  6434  0028                     	__size_of_delay_ms	equ	__end_of_delay_ms-_delay_ms
  6435                           	
  6436  0A7E                     _delay_ms:	
  6437                           	opt	stack 5
  6438                           ; Regs used in _delay_ms: [wreg]
  6439                           	line	94
  6440                           	
  6441  0A7E                     l5192:	
  6442                           ;main.c: 94: int i=0;
  6443  0A7E  3000               	movlw	low(0)
  6444  0A7F  1283               	bcf	status, 5	;RP0=0, select bank0
  6445  0A80  1303               	bcf	status, 6	;RP1=0, select bank0
  6446  0A81  00A3               	movwf	(delay_ms@i)
  6447  0A82  3000               	movlw	high(0)
  6448  0A83  00A4               	movwf	((delay_ms@i))+1
  6449                           	line	95
  6450                           ;main.c: 95: for(;i<x;i++)
  6451  0A84  2A96               	goto	l962
  6452                           	line	96
  6453                           	
  6454  0A85                     l963:	
  6455                           	line	97
  6456                           	
  6457  0A85                     l5194:	
  6458                           ;main.c: 96: {
  6459                           ;main.c: 97: _delay(1000);
  6460                           	opt asmopt_off
  6461  0A85  30F9               movlw	249
  6462  0A86  1283               	bcf	status, 5	;RP0=0, select bank0
  6463  0A87  1303               	bcf	status, 6	;RP1=0, select bank0
  6464  0A88  00A2               movwf	(??_delay_ms+0)+0,f
  6465  0A89                     u5747:
  6466  0A89  0064               	clrwdt
  6467  0A8A  0BA2               decfsz	(??_delay_ms+0)+0,f
  6468  0A8B  2A89               	goto	u5747
  6469  0A8C  2A8D               	nop2	;nop
  6470  0A8D  0064               	clrwdt
  6471                           opt asmopt_on
  6472                           
  6473                           	line	95
  6474  0A8E  3001               	movlw	low(01h)
  6475  0A8F  1283               	bcf	status, 5	;RP0=0, select bank0
  6476  0A90  1303               	bcf	status, 6	;RP1=0, select bank0
  6477  0A91  07A3               	addwf	(delay_ms@i),f
  6478  0A92  1803               	skipnc
  6479  0A93  0AA4               	incf	(delay_ms@i+1),f
  6480  0A94  3000               	movlw	high(01h)
  6481  0A95  07A4               	addwf	(delay_ms@i+1),f
  6482                           	
  6483  0A96                     l962:	
  6484  0A96  0824               	movf	(delay_ms@i+1),w
  6485  0A97  3A80               	xorlw	80h
  6486  0A98  00A2               	movwf	(??_delay_ms+0)+0
  6487  0A99  0821               	movf	(delay_ms@x+1),w
  6488  0A9A  3A80               	xorlw	80h
  6489  0A9B  0222               	subwf	(??_delay_ms+0)+0,w
  6490  0A9C  1D03               	skipz
  6491  0A9D  2AA0               	goto	u4675
  6492  0A9E  0820               	movf	(delay_ms@x),w
  6493  0A9F  0223               	subwf	(delay_ms@i),w
  6494  0AA0                     u4675:
  6495                           
  6496  0AA0  1C03               	skipc
  6497  0AA1  2AA3               	goto	u4671
  6498  0AA2  2AA4               	goto	u4670
  6499  0AA3                     u4671:
  6500  0AA3  2A85               	goto	l5194
  6501  0AA4                     u4670:
  6502  0AA4  2AA5               	goto	l965
  6503                           	
  6504  0AA5                     l964:	
  6505                           	line	99
  6506                           	
  6507  0AA5                     l965:	
  6508  0AA5  0008               	return
  6509                           	opt stack 0
  6510                           GLOBAL	__end_of_delay_ms
  6511  0AA6                     	__end_of_delay_ms:
  6512 ;; =============== function _delay_ms ends ============
  6513                           
  6514                           	signat	_delay_ms,4216
  6515                           	global	___awmod
  6516                           psect	text1005,local,class=CODE,delta=2
  6517                           global __ptext1005
  6518  0C1B                     __ptext1005:
  6519                           
  6520 ;; *************** function ___awmod *****************
  6521 ;; Defined at:
  6522 ;;		line 5 in file "C:\Program Files (x86)\HI-TECH Software\PICC\9.80\sources\awmod.c"
  6523 ;; Parameters:    Size  Location     Type
  6524 ;;  divisor         2    0[BANK0 ] int 
  6525 ;;  dividend        2    2[BANK0 ] int 
  6526 ;; Auto vars:     Size  Location     Type
  6527 ;;  sign            1    6[BANK0 ] unsigned char 
  6528 ;;  counter         1    5[BANK0 ] unsigned char 
  6529 ;; Return value:  Size  Location     Type
  6530 ;;                  2    0[BANK0 ] int 
  6531 ;; Registers used:
  6532 ;;		wreg, status,2, status,0
  6533 ;; Tracked objects:
  6534 ;;		On entry : 0/0
  6535 ;;		On exit  : 0/0
  6536 ;;		Unchanged: 0/0
  6537 ;; Data sizes:     COMMON   BANK0   BANK1   BANK3   BANK2
  6538 ;;      Params:         0       4       0       0       0
  6539 ;;      Locals:         0       2       0       0       0
  6540 ;;      Temps:          0       1       0       0       0
  6541 ;;      Totals:         0       7       0       0       0
  6542 ;;Total ram usage:        7 bytes
  6543 ;; Hardware stack levels used:    1
  6544 ;; Hardware stack levels required when called:    1
  6545 ;; This function calls:
  6546 ;;		Nothing
  6547 ;; This function is called by:
  6548 ;;		_xu_ly_lux
  6549 ;;		_send_lux
  6550 ;; This function uses a non-reentrant model
  6551 ;;
  6552                           psect	text1005
  6553                           	file	"C:\Program Files (x86)\HI-TECH Software\PICC\9.80\sources\awmod.c"
  6554                           	line	5
  6555                           	global	__size_of___awmod
  6556  006C                     	__size_of___awmod	equ	__end_of___awmod-___awmod
  6557                           	
  6558  0C1B                     ___awmod:	
  6559                           	opt	stack 5
  6560                           ; Regs used in ___awmod: [wreg+status,2+status,0]
  6561                           	line	8
  6562                           	
  6563  0C1B                     l5108:	
  6564  0C1B  1003               	clrc
  6565  0C1C  3000               	movlw	0
  6566  0C1D  1803               	btfsc	status,0
  6567  0C1E  3001               	movlw	1
  6568  0C1F  1283               	bcf	status, 5	;RP0=0, select bank0
  6569  0C20  1303               	bcf	status, 6	;RP1=0, select bank0
  6570  0C21  00A6               	movwf	(___awmod@sign)
  6571                           	line	9
  6572                           	
  6573  0C22                     l5110:	
  6574  0C22  1FA3               	btfss	(___awmod@dividend+1),7
  6575  0C23  2C25               	goto	u4521
  6576  0C24  2C26               	goto	u4520
  6577  0C25                     u4521:
  6578  0C25  2C2F               	goto	l5114
  6579  0C26                     u4520:
  6580                           	line	10
  6581                           	
  6582  0C26                     l5112:	
  6583  0C26  09A2               	comf	(___awmod@dividend),f
  6584  0C27  09A3               	comf	(___awmod@dividend+1),f
  6585  0C28  0AA2               	incf	(___awmod@dividend),f
  6586  0C29  1903               	skipnz
  6587  0C2A  0AA3               	incf	(___awmod@dividend+1),f
  6588                           	line	11
  6589  0C2B  01A6               	clrf	(___awmod@sign)
  6590  0C2C  1403               	bsf	status,0
  6591  0C2D  0DA6               	rlf	(___awmod@sign),f
  6592  0C2E  2C2F               	goto	l5114
  6593                           	line	12
  6594                           	
  6595  0C2F                     l2148:	
  6596                           	line	13
  6597                           	
  6598  0C2F                     l5114:	
  6599  0C2F  1FA1               	btfss	(___awmod@divisor+1),7
  6600  0C30  2C32               	goto	u4531
  6601  0C31  2C33               	goto	u4530
  6602  0C32                     u4531:
  6603  0C32  2C39               	goto	l5118
  6604  0C33                     u4530:
  6605                           	line	14
  6606                           	
  6607  0C33                     l5116:	
  6608  0C33  09A0               	comf	(___awmod@divisor),f
  6609  0C34  09A1               	comf	(___awmod@divisor+1),f
  6610  0C35  0AA0               	incf	(___awmod@divisor),f
  6611  0C36  1903               	skipnz
  6612  0C37  0AA1               	incf	(___awmod@divisor+1),f
  6613  0C38  2C39               	goto	l5118
  6614                           	
  6615  0C39                     l2149:	
  6616                           	line	15
  6617                           	
  6618  0C39                     l5118:	
  6619  0C39  0821               	movf	(___awmod@divisor+1),w
  6620  0C3A  0420               	iorwf	(___awmod@divisor),w
  6621  0C3B  1903               	skipnz
  6622  0C3C  2C3E               	goto	u4541
  6623  0C3D  2C3F               	goto	u4540
  6624  0C3E                     u4541:
  6625  0C3E  2C75               	goto	l5136
  6626  0C3F                     u4540:
  6627                           	line	16
  6628                           	
  6629  0C3F                     l5120:	
  6630  0C3F  01A5               	clrf	(___awmod@counter)
  6631  0C40  1403               	bsf	status,0
  6632  0C41  0DA5               	rlf	(___awmod@counter),f
  6633                           	line	17
  6634  0C42  2C4F               	goto	l5126
  6635                           	
  6636  0C43                     l2152:	
  6637                           	line	18
  6638                           	
  6639  0C43                     l5122:	
  6640  0C43  3001               	movlw	01h
  6641                           	
  6642  0C44                     u4555:
  6643  0C44  1003               	clrc
  6644  0C45  0DA0               	rlf	(___awmod@divisor),f
  6645  0C46  0DA1               	rlf	(___awmod@divisor+1),f
  6646  0C47  3EFF               	addlw	-1
  6647  0C48  1D03               	skipz
  6648  0C49  2C44               	goto	u4555
  6649                           	line	19
  6650                           	
  6651  0C4A                     l5124:	
  6652  0C4A  3001               	movlw	(01h)
  6653  0C4B  00A4               	movwf	(??___awmod+0)+0
  6654  0C4C  0824               	movf	(??___awmod+0)+0,w
  6655  0C4D  07A5               	addwf	(___awmod@counter),f
  6656  0C4E  2C4F               	goto	l5126
  6657                           	line	20
  6658                           	
  6659  0C4F                     l2151:	
  6660                           	line	17
  6661                           	
  6662  0C4F                     l5126:	
  6663  0C4F  1FA1               	btfss	(___awmod@divisor+1),(15)&7
  6664  0C50  2C52               	goto	u4561
  6665  0C51  2C53               	goto	u4560
  6666  0C52                     u4561:
  6667  0C52  2C43               	goto	l5122
  6668  0C53                     u4560:
  6669  0C53  2C55               	goto	l5128
  6670                           	
  6671  0C54                     l2153:	
  6672  0C54  2C55               	goto	l5128
  6673                           	line	21
  6674                           	
  6675  0C55                     l2154:	
  6676                           	line	22
  6677                           	
  6678  0C55                     l5128:	
  6679  0C55  0821               	movf	(___awmod@divisor+1),w
  6680  0C56  0223               	subwf	(___awmod@dividend+1),w
  6681  0C57  1D03               	skipz
  6682  0C58  2C5B               	goto	u4575
  6683  0C59  0820               	movf	(___awmod@divisor),w
  6684  0C5A  0222               	subwf	(___awmod@dividend),w
  6685  0C5B                     u4575:
  6686  0C5B  1C03               	skipc
  6687  0C5C  2C5E               	goto	u4571
  6688  0C5D  2C5F               	goto	u4570
  6689  0C5E                     u4571:
  6690  0C5E  2C66               	goto	l5132
  6691  0C5F                     u4570:
  6692                           	line	23
  6693                           	
  6694  0C5F                     l5130:	
  6695  0C5F  0820               	movf	(___awmod@divisor),w
  6696  0C60  02A2               	subwf	(___awmod@dividend),f
  6697  0C61  0821               	movf	(___awmod@divisor+1),w
  6698  0C62  1C03               	skipc
  6699  0C63  03A3               	decf	(___awmod@dividend+1),f
  6700  0C64  02A3               	subwf	(___awmod@dividend+1),f
  6701  0C65  2C66               	goto	l5132
  6702                           	
  6703  0C66                     l2155:	
  6704                           	line	24
  6705                           	
  6706  0C66                     l5132:	
  6707  0C66  3001               	movlw	01h
  6708                           	
  6709  0C67                     u4585:
  6710  0C67  1003               	clrc
  6711  0C68  0CA1               	rrf	(___awmod@divisor+1),f
  6712  0C69  0CA0               	rrf	(___awmod@divisor),f
  6713  0C6A  3EFF               	addlw	-1
  6714  0C6B  1D03               	skipz
  6715  0C6C  2C67               	goto	u4585
  6716                           	line	25
  6717                           	
  6718  0C6D                     l5134:	
  6719  0C6D  3001               	movlw	low(01h)
  6720  0C6E  02A5               	subwf	(___awmod@counter),f
  6721  0C6F  1D03               	btfss	status,2
  6722  0C70  2C72               	goto	u4591
  6723  0C71  2C73               	goto	u4590
  6724  0C72                     u4591:
  6725  0C72  2C55               	goto	l5128
  6726  0C73                     u4590:
  6727  0C73  2C75               	goto	l5136
  6728                           	
  6729  0C74                     l2156:	
  6730  0C74  2C75               	goto	l5136
  6731                           	line	26
  6732                           	
  6733  0C75                     l2150:	
  6734                           	line	27
  6735                           	
  6736  0C75                     l5136:	
  6737  0C75  0826               	movf	(___awmod@sign),w
  6738  0C76  1D03               	skipz
  6739  0C77  2C79               	goto	u4600
  6740  0C78  2C7F               	goto	l5140
  6741  0C79                     u4600:
  6742                           	line	28
  6743                           	
  6744  0C79                     l5138:	
  6745  0C79  09A2               	comf	(___awmod@dividend),f
  6746  0C7A  09A3               	comf	(___awmod@dividend+1),f
  6747  0C7B  0AA2               	incf	(___awmod@dividend),f
  6748  0C7C  1903               	skipnz
  6749  0C7D  0AA3               	incf	(___awmod@dividend+1),f
  6750  0C7E  2C7F               	goto	l5140
  6751                           	
  6752  0C7F                     l2157:	
  6753                           	line	29
  6754                           	
  6755  0C7F                     l5140:	
  6756  0C7F  0823               	movf	(___awmod@dividend+1),w
  6757  0C80  01A1               	clrf	(?___awmod+1)
  6758  0C81  07A1               	addwf	(?___awmod+1)
  6759  0C82  0822               	movf	(___awmod@dividend),w
  6760  0C83  01A0               	clrf	(?___awmod)
  6761  0C84  07A0               	addwf	(?___awmod)
  6762                           
  6763  0C85  2C86               	goto	l2158
  6764                           	
  6765  0C86                     l5142:	
  6766                           	line	30
  6767                           	
  6768  0C86                     l2158:	
  6769  0C86  0008               	return
  6770                           	opt stack 0
  6771                           GLOBAL	__end_of___awmod
  6772  0C87                     	__end_of___awmod:
  6773 ;; =============== function ___awmod ends ============
  6774                           
  6775                           	signat	___awmod,8314
  6776                           	global	___ftneg
  6777                           psect	text1006,local,class=CODE,delta=2
  6778                           global __ptext1006
  6779  09C5                     __ptext1006:
  6780                           
  6781 ;; *************** function ___ftneg *****************
  6782 ;; Defined at:
  6783 ;;		line 16 in file "C:\Program Files (x86)\HI-TECH Software\PICC\9.80\sources\ftneg.c"
  6784 ;; Parameters:    Size  Location     Type
  6785 ;;  f1              3    8[BANK0 ] float 
  6786 ;; Auto vars:     Size  Location     Type
  6787 ;;		None
  6788 ;; Return value:  Size  Location     Type
  6789 ;;                  3    8[BANK0 ] float 
  6790 ;; Registers used:
  6791 ;;		wreg
  6792 ;; Tracked objects:
  6793 ;;		On entry : 0/0
  6794 ;;		On exit  : 0/0
  6795 ;;		Unchanged: 0/0
  6796 ;; Data sizes:     COMMON   BANK0   BANK1   BANK3   BANK2
  6797 ;;      Params:         0       3       0       0       0
  6798 ;;      Locals:         0       0       0       0       0
  6799 ;;      Temps:          0       0       0       0       0
  6800 ;;      Totals:         0       3       0       0       0
  6801 ;;Total ram usage:        3 bytes
  6802 ;; Hardware stack levels used:    1
  6803 ;; Hardware stack levels required when called:    1
  6804 ;; This function calls:
  6805 ;;		Nothing
  6806 ;; This function is called by:
  6807 ;;		_xu_ly_lux
  6808 ;; This function uses a non-reentrant model
  6809 ;;
  6810                           psect	text1006
  6811                           	file	"C:\Program Files (x86)\HI-TECH Software\PICC\9.80\sources\ftneg.c"
  6812                           	line	16
  6813                           	global	__size_of___ftneg
  6814  000E                     	__size_of___ftneg	equ	__end_of___ftneg-___ftneg
  6815                           	
  6816  09C5                     ___ftneg:	
  6817                           	opt	stack 5
  6818                           ; Regs used in ___ftneg: [wreg]
  6819                           	line	17
  6820                           	
  6821  09C5                     l5100:	
  6822  09C5  1283               	bcf	status, 5	;RP0=0, select bank0
  6823  09C6  1303               	bcf	status, 6	;RP1=0, select bank0
  6824  09C7  082A               	movf	(___ftneg@f1+2),w
  6825  09C8  0429               	iorwf	(___ftneg@f1+1),w
  6826  09C9  0428               	iorwf	(___ftneg@f1),w
  6827  09CA  1903               	skipnz
  6828  09CB  29CD               	goto	u4511
  6829  09CC  29CE               	goto	u4510
  6830  09CD                     u4511:
  6831  09CD  29D1               	goto	l5104
  6832  09CE                     u4510:
  6833                           	line	18
  6834                           	
  6835  09CE                     l5102:	
  6836  09CE  3080               	movlw	080h
  6837  09CF  06AA               	xorwf	(___ftneg@f1+2),f
  6838  09D0  29D1               	goto	l5104
  6839                           	
  6840  09D1                     l2103:	
  6841                           	line	19
  6842                           	
  6843  09D1                     l5104:	
  6844  09D1  29D2               	goto	l2104
  6845                           	
  6846  09D2                     l5106:	
  6847                           	line	20
  6848                           	
  6849  09D2                     l2104:	
  6850  09D2  0008               	return
  6851                           	opt stack 0
  6852                           GLOBAL	__end_of___ftneg
  6853  09D3                     	__end_of___ftneg:
  6854 ;; =============== function ___ftneg ends ============
  6855                           
  6856                           	signat	___ftneg,4219
  6857                           	global	___awdiv
  6858                           psect	text1007,local,class=CODE,delta=2
  6859                           global __ptext1007
  6860  0C87                     __ptext1007:
  6861                           
  6862 ;; *************** function ___awdiv *****************
  6863 ;; Defined at:
  6864 ;;		line 5 in file "C:\Program Files (x86)\HI-TECH Software\PICC\9.80\sources\awdiv.c"
  6865 ;; Parameters:    Size  Location     Type
  6866 ;;  divisor         2    7[BANK0 ] int 
  6867 ;;  dividend        2    9[BANK0 ] int 
  6868 ;; Auto vars:     Size  Location     Type
  6869 ;;  quotient        2   14[BANK0 ] int 
  6870 ;;  sign            1   13[BANK0 ] unsigned char 
  6871 ;;  counter         1   12[BANK0 ] unsigned char 
  6872 ;; Return value:  Size  Location     Type
  6873 ;;                  2    7[BANK0 ] int 
  6874 ;; Registers used:
  6875 ;;		wreg, status,2, status,0
  6876 ;; Tracked objects:
  6877 ;;		On entry : 0/0
  6878 ;;		On exit  : 0/0
  6879 ;;		Unchanged: 0/0
  6880 ;; Data sizes:     COMMON   BANK0   BANK1   BANK3   BANK2
  6881 ;;      Params:         0       4       0       0       0
  6882 ;;      Locals:         0       4       0       0       0
  6883 ;;      Temps:          0       1       0       0       0
  6884 ;;      Totals:         0       9       0       0       0
  6885 ;;Total ram usage:        9 bytes
  6886 ;; Hardware stack levels used:    1
  6887 ;; Hardware stack levels required when called:    1
  6888 ;; This function calls:
  6889 ;;		Nothing
  6890 ;; This function is called by:
  6891 ;;		_xu_ly_lux
  6892 ;;		_send_lux
  6893 ;; This function uses a non-reentrant model
  6894 ;;
  6895                           psect	text1007
  6896                           	file	"C:\Program Files (x86)\HI-TECH Software\PICC\9.80\sources\awdiv.c"
  6897                           	line	5
  6898                           	global	__size_of___awdiv
  6899  007B                     	__size_of___awdiv	equ	__end_of___awdiv-___awdiv
  6900                           	
  6901  0C87                     ___awdiv:	
  6902                           	opt	stack 5
  6903                           ; Regs used in ___awdiv: [wreg+status,2+status,0]
  6904                           	line	9
  6905                           	
  6906  0C87                     l5062:	
  6907  0C87  1003               	clrc
  6908  0C88  3000               	movlw	0
  6909  0C89  1803               	btfsc	status,0
  6910  0C8A  3001               	movlw	1
  6911  0C8B  1283               	bcf	status, 5	;RP0=0, select bank0
  6912  0C8C  1303               	bcf	status, 6	;RP1=0, select bank0
  6913  0C8D  00AD               	movwf	(___awdiv@sign)
  6914                           	line	10
  6915                           	
  6916  0C8E                     l5064:	
  6917  0C8E  1FA8               	btfss	(___awdiv@divisor+1),7
  6918  0C8F  2C91               	goto	u4411
  6919  0C90  2C92               	goto	u4410
  6920  0C91                     u4411:
  6921  0C91  2C9B               	goto	l5068
  6922  0C92                     u4410:
  6923                           	line	11
  6924                           	
  6925  0C92                     l5066:	
  6926  0C92  09A7               	comf	(___awdiv@divisor),f
  6927  0C93  09A8               	comf	(___awdiv@divisor+1),f
  6928  0C94  0AA7               	incf	(___awdiv@divisor),f
  6929  0C95  1903               	skipnz
  6930  0C96  0AA8               	incf	(___awdiv@divisor+1),f
  6931                           	line	12
  6932  0C97  01AD               	clrf	(___awdiv@sign)
  6933  0C98  1403               	bsf	status,0
  6934  0C99  0DAD               	rlf	(___awdiv@sign),f
  6935  0C9A  2C9B               	goto	l5068
  6936                           	line	13
  6937                           	
  6938  0C9B                     l2080:	
  6939                           	line	14
  6940                           	
  6941  0C9B                     l5068:	
  6942  0C9B  1FAA               	btfss	(___awdiv@dividend+1),7
  6943  0C9C  2C9E               	goto	u4421
  6944  0C9D  2C9F               	goto	u4420
  6945  0C9E                     u4421:
  6946  0C9E  2CA8               	goto	l2081
  6947  0C9F                     u4420:
  6948                           	line	15
  6949                           	
  6950  0C9F                     l5070:	
  6951  0C9F  09A9               	comf	(___awdiv@dividend),f
  6952  0CA0  09AA               	comf	(___awdiv@dividend+1),f
  6953  0CA1  0AA9               	incf	(___awdiv@dividend),f
  6954  0CA2  1903               	skipnz
  6955  0CA3  0AAA               	incf	(___awdiv@dividend+1),f
  6956                           	line	16
  6957                           	
  6958  0CA4                     l5072:	
  6959  0CA4  3001               	movlw	(01h)
  6960  0CA5  00AB               	movwf	(??___awdiv+0)+0
  6961  0CA6  082B               	movf	(??___awdiv+0)+0,w
  6962  0CA7  06AD               	xorwf	(___awdiv@sign),f
  6963                           	line	17
  6964                           	
  6965  0CA8                     l2081:	
  6966                           	line	18
  6967  0CA8  3000               	movlw	low(0)
  6968  0CA9  00AE               	movwf	(___awdiv@quotient)
  6969  0CAA  3000               	movlw	high(0)
  6970  0CAB  00AF               	movwf	((___awdiv@quotient))+1
  6971                           	line	19
  6972  0CAC  0828               	movf	(___awdiv@divisor+1),w
  6973  0CAD  0427               	iorwf	(___awdiv@divisor),w
  6974  0CAE  1903               	skipnz
  6975  0CAF  2CB1               	goto	u4431
  6976  0CB0  2CB2               	goto	u4430
  6977  0CB1                     u4431:
  6978  0CB1  2CF0               	goto	l5092
  6979  0CB2                     u4430:
  6980                           	line	20
  6981                           	
  6982  0CB2                     l5074:	
  6983  0CB2  01AC               	clrf	(___awdiv@counter)
  6984  0CB3  1403               	bsf	status,0
  6985  0CB4  0DAC               	rlf	(___awdiv@counter),f
  6986                           	line	21
  6987  0CB5  2CC2               	goto	l5080
  6988                           	
  6989  0CB6                     l2084:	
  6990                           	line	22
  6991                           	
  6992  0CB6                     l5076:	
  6993  0CB6  3001               	movlw	01h
  6994                           	
  6995  0CB7                     u4445:
  6996  0CB7  1003               	clrc
  6997  0CB8  0DA7               	rlf	(___awdiv@divisor),f
  6998  0CB9  0DA8               	rlf	(___awdiv@divisor+1),f
  6999  0CBA  3EFF               	addlw	-1
  7000  0CBB  1D03               	skipz
  7001  0CBC  2CB7               	goto	u4445
  7002                           	line	23
  7003                           	
  7004  0CBD                     l5078:	
  7005  0CBD  3001               	movlw	(01h)
  7006  0CBE  00AB               	movwf	(??___awdiv+0)+0
  7007  0CBF  082B               	movf	(??___awdiv+0)+0,w
  7008  0CC0  07AC               	addwf	(___awdiv@counter),f
  7009  0CC1  2CC2               	goto	l5080
  7010                           	line	24
  7011                           	
  7012  0CC2                     l2083:	
  7013                           	line	21
  7014                           	
  7015  0CC2                     l5080:	
  7016  0CC2  1FA8               	btfss	(___awdiv@divisor+1),(15)&7
  7017  0CC3  2CC5               	goto	u4451
  7018  0CC4  2CC6               	goto	u4450
  7019  0CC5                     u4451:
  7020  0CC5  2CB6               	goto	l5076
  7021  0CC6                     u4450:
  7022  0CC6  2CC8               	goto	l5082
  7023                           	
  7024  0CC7                     l2085:	
  7025  0CC7  2CC8               	goto	l5082
  7026                           	line	25
  7027                           	
  7028  0CC8                     l2086:	
  7029                           	line	26
  7030                           	
  7031  0CC8                     l5082:	
  7032  0CC8  3001               	movlw	01h
  7033                           	
  7034  0CC9                     u4465:
  7035  0CC9  1003               	clrc
  7036  0CCA  0DAE               	rlf	(___awdiv@quotient),f
  7037  0CCB  0DAF               	rlf	(___awdiv@quotient+1),f
  7038  0CCC  3EFF               	addlw	-1
  7039  0CCD  1D03               	skipz
  7040  0CCE  2CC9               	goto	u4465
  7041                           	line	27
  7042  0CCF  0828               	movf	(___awdiv@divisor+1),w
  7043  0CD0  022A               	subwf	(___awdiv@dividend+1),w
  7044  0CD1  1D03               	skipz
  7045  0CD2  2CD5               	goto	u4475
  7046  0CD3  0827               	movf	(___awdiv@divisor),w
  7047  0CD4  0229               	subwf	(___awdiv@dividend),w
  7048  0CD5                     u4475:
  7049  0CD5  1C03               	skipc
  7050  0CD6  2CD8               	goto	u4471
  7051  0CD7  2CD9               	goto	u4470
  7052  0CD8                     u4471:
  7053  0CD8  2CE1               	goto	l5088
  7054  0CD9                     u4470:
  7055                           	line	28
  7056                           	
  7057  0CD9                     l5084:	
  7058  0CD9  0827               	movf	(___awdiv@divisor),w
  7059  0CDA  02A9               	subwf	(___awdiv@dividend),f
  7060  0CDB  0828               	movf	(___awdiv@divisor+1),w
  7061  0CDC  1C03               	skipc
  7062  0CDD  03AA               	decf	(___awdiv@dividend+1),f
  7063  0CDE  02AA               	subwf	(___awdiv@dividend+1),f
  7064                           	line	29
  7065                           	
  7066  0CDF                     l5086:	
  7067  0CDF  142E               	bsf	(___awdiv@quotient)+(0/8),(0)&7
  7068  0CE0  2CE1               	goto	l5088
  7069                           	line	30
  7070                           	
  7071  0CE1                     l2087:	
  7072                           	line	31
  7073                           	
  7074  0CE1                     l5088:	
  7075  0CE1  3001               	movlw	01h
  7076                           	
  7077  0CE2                     u4485:
  7078  0CE2  1003               	clrc
  7079  0CE3  0CA8               	rrf	(___awdiv@divisor+1),f
  7080  0CE4  0CA7               	rrf	(___awdiv@divisor),f
  7081  0CE5  3EFF               	addlw	-1
  7082  0CE6  1D03               	skipz
  7083  0CE7  2CE2               	goto	u4485
  7084                           	line	32
  7085                           	
  7086  0CE8                     l5090:	
  7087  0CE8  3001               	movlw	low(01h)
  7088  0CE9  02AC               	subwf	(___awdiv@counter),f
  7089  0CEA  1D03               	btfss	status,2
  7090  0CEB  2CED               	goto	u4491
  7091  0CEC  2CEE               	goto	u4490
  7092  0CED                     u4491:
  7093  0CED  2CC8               	goto	l5082
  7094  0CEE                     u4490:
  7095  0CEE  2CF0               	goto	l5092
  7096                           	
  7097  0CEF                     l2088:	
  7098  0CEF  2CF0               	goto	l5092
  7099                           	line	33
  7100                           	
  7101  0CF0                     l2082:	
  7102                           	line	34
  7103                           	
  7104  0CF0                     l5092:	
  7105  0CF0  082D               	movf	(___awdiv@sign),w
  7106  0CF1  1D03               	skipz
  7107  0CF2  2CF4               	goto	u4500
  7108  0CF3  2CFA               	goto	l5096
  7109  0CF4                     u4500:
  7110                           	line	35
  7111                           	
  7112  0CF4                     l5094:	
  7113  0CF4  09AE               	comf	(___awdiv@quotient),f
  7114  0CF5  09AF               	comf	(___awdiv@quotient+1),f
  7115  0CF6  0AAE               	incf	(___awdiv@quotient),f
  7116  0CF7  1903               	skipnz
  7117  0CF8  0AAF               	incf	(___awdiv@quotient+1),f
  7118  0CF9  2CFA               	goto	l5096
  7119                           	
  7120  0CFA                     l2089:	
  7121                           	line	36
  7122                           	
  7123  0CFA                     l5096:	
  7124  0CFA  082F               	movf	(___awdiv@quotient+1),w
  7125  0CFB  01A8               	clrf	(?___awdiv+1)
  7126  0CFC  07A8               	addwf	(?___awdiv+1)
  7127  0CFD  082E               	movf	(___awdiv@quotient),w
  7128  0CFE  01A7               	clrf	(?___awdiv)
  7129  0CFF  07A7               	addwf	(?___awdiv)
  7130                           
  7131  0D00  2D01               	goto	l2090
  7132                           	
  7133  0D01                     l5098:	
  7134                           	line	37
  7135                           	
  7136  0D01                     l2090:	
  7137  0D01  0008               	return
  7138                           	opt stack 0
  7139                           GLOBAL	__end_of___awdiv
  7140  0D02                     	__end_of___awdiv:
  7141 ;; =============== function ___awdiv ends ============
  7142                           
  7143                           	signat	___awdiv,8314
  7144                           	global	___fttol
  7145                           psect	text1008,local,class=CODE,delta=2
  7146                           global __ptext1008
  7147  0E98                     __ptext1008:
  7148                           
  7149 ;; *************** function ___fttol *****************
  7150 ;; Defined at:
  7151 ;;		line 45 in file "C:\Program Files (x86)\HI-TECH Software\PICC\9.80\sources\fttol.c"
  7152 ;; Parameters:    Size  Location     Type
  7153 ;;  f1              3   11[BANK0 ] float 
  7154 ;; Auto vars:     Size  Location     Type
  7155 ;;  lval            4   20[BANK0 ] unsigned long 
  7156 ;;  exp1            1   24[BANK0 ] unsigned char 
  7157 ;;  sign1           1   19[BANK0 ] unsigned char 
  7158 ;; Return value:  Size  Location     Type
  7159 ;;                  4   11[BANK0 ] long 
  7160 ;; Registers used:
  7161 ;;		wreg, status,2, status,0
  7162 ;; Tracked objects:
  7163 ;;		On entry : 0/0
  7164 ;;		On exit  : 0/0
  7165 ;;		Unchanged: 0/0
  7166 ;; Data sizes:     COMMON   BANK0   BANK1   BANK3   BANK2
  7167 ;;      Params:         0       4       0       0       0
  7168 ;;      Locals:         0       6       0       0       0
  7169 ;;      Temps:          0       4       0       0       0
  7170 ;;      Totals:         0      14       0       0       0
  7171 ;;Total ram usage:       14 bytes
  7172 ;; Hardware stack levels used:    1
  7173 ;; Hardware stack levels required when called:    1
  7174 ;; This function calls:
  7175 ;;		Nothing
  7176 ;; This function is called by:
  7177 ;;		_xu_ly_lux
  7178 ;;		_send_lux
  7179 ;; This function uses a non-reentrant model
  7180 ;;
  7181                           psect	text1008
  7182                           	file	"C:\Program Files (x86)\HI-TECH Software\PICC\9.80\sources\fttol.c"
  7183                           	line	45
  7184                           	global	__size_of___fttol
  7185  00A6                     	__size_of___fttol	equ	__end_of___fttol-___fttol
  7186                           	
  7187  0E98                     ___fttol:	
  7188                           	opt	stack 5
  7189                           ; Regs used in ___fttol: [wreg+status,2+status,0]
  7190                           	line	49
  7191                           	
  7192  0E98                     l5004:	
  7193  0E98  1283               	bcf	status, 5	;RP0=0, select bank0
  7194  0E99  1303               	bcf	status, 6	;RP1=0, select bank0
  7195  0E9A  082B               	movf	(___fttol@f1),w
  7196  0E9B  00AF               	movwf	((??___fttol+0)+0)
  7197  0E9C  082C               	movf	(___fttol@f1+1),w
  7198  0E9D  00B0               	movwf	((??___fttol+0)+0+1)
  7199  0E9E  082D               	movf	(___fttol@f1+2),w
  7200  0E9F  00B1               	movwf	((??___fttol+0)+0+2)
  7201  0EA0  1003               	clrc
  7202  0EA1  0D30               	rlf	(??___fttol+0)+1,w
  7203  0EA2  0D31               	rlf	(??___fttol+0)+2,w
  7204  0EA3  00B2               	movwf	(??___fttol+3)+0
  7205  0EA4  0832               	movf	(??___fttol+3)+0,w
  7206  0EA5  00B8               	movwf	(___fttol@exp1)
  7207  0EA6  08B8               	movf	((___fttol@exp1)),f
  7208  0EA7  1D03               	skipz
  7209  0EA8  2EAA               	goto	u4301
  7210  0EA9  2EAB               	goto	u4300
  7211  0EAA                     u4301:
  7212  0EAA  2EB5               	goto	l5010
  7213  0EAB                     u4300:
  7214                           	line	50
  7215                           	
  7216  0EAB                     l5006:	
  7217  0EAB  3000               	movlw	0
  7218  0EAC  00AE               	movwf	(?___fttol+3)
  7219  0EAD  3000               	movlw	0
  7220  0EAE  00AD               	movwf	(?___fttol+2)
  7221  0EAF  3000               	movlw	0
  7222  0EB0  00AC               	movwf	(?___fttol+1)
  7223  0EB1  3000               	movlw	0
  7224  0EB2  00AB               	movwf	(?___fttol)
  7225                           
  7226  0EB3  2F3D               	goto	l2050
  7227                           	
  7228  0EB4                     l5008:	
  7229  0EB4  2F3D               	goto	l2050
  7230                           	
  7231  0EB5                     l2049:	
  7232                           	line	51
  7233                           	
  7234  0EB5                     l5010:	
  7235  0EB5  082B               	movf	(___fttol@f1),w
  7236  0EB6  00AF               	movwf	((??___fttol+0)+0)
  7237  0EB7  082C               	movf	(___fttol@f1+1),w
  7238  0EB8  00B0               	movwf	((??___fttol+0)+0+1)
  7239  0EB9  082D               	movf	(___fttol@f1+2),w
  7240  0EBA  00B1               	movwf	((??___fttol+0)+0+2)
  7241  0EBB  3017               	movlw	017h
  7242  0EBC                     u4315:
  7243  0EBC  1003               	clrc
  7244  0EBD  0CB1               	rrf	(??___fttol+0)+2,f
  7245  0EBE  0CB0               	rrf	(??___fttol+0)+1,f
  7246  0EBF  0CAF               	rrf	(??___fttol+0)+0,f
  7247  0EC0                     u4310:
  7248  0EC0  3EFF               	addlw	-1
  7249  0EC1  1D03               	skipz
  7250  0EC2  2EBC               	goto	u4315
  7251  0EC3  082F               	movf	0+(??___fttol+0)+0,w
  7252  0EC4  00B2               	movwf	(??___fttol+3)+0
  7253  0EC5  0832               	movf	(??___fttol+3)+0,w
  7254  0EC6  00B3               	movwf	(___fttol@sign1)
  7255                           	line	52
  7256                           	
  7257  0EC7                     l5012:	
  7258  0EC7  17AC               	bsf	(___fttol@f1)+(15/8),(15)&7
  7259                           	line	53
  7260                           	
  7261  0EC8                     l5014:	
  7262  0EC8  30FF               	movlw	0FFh
  7263  0EC9  05AB               	andwf	(___fttol@f1),f
  7264  0ECA  30FF               	movlw	0FFh
  7265  0ECB  05AC               	andwf	(___fttol@f1+1),f
  7266  0ECC  3000               	movlw	0
  7267  0ECD  05AD               	andwf	(___fttol@f1+2),f
  7268                           	line	54
  7269                           	
  7270  0ECE                     l5016:	
  7271  0ECE  082B               	movf	(___fttol@f1),w
  7272  0ECF  00B4               	movwf	(___fttol@lval)
  7273  0ED0  082C               	movf	(___fttol@f1+1),w
  7274  0ED1  00B5               	movwf	((___fttol@lval))+1
  7275  0ED2  082D               	movf	(___fttol@f1+2),w
  7276  0ED3  00B6               	movwf	((___fttol@lval))+2
  7277  0ED4  01B7               	clrf	((___fttol@lval))+3
  7278                           	line	55
  7279                           	
  7280  0ED5                     l5018:	
  7281  0ED5  308E               	movlw	low(08Eh)
  7282  0ED6  02B8               	subwf	(___fttol@exp1),f
  7283                           	line	56
  7284                           	
  7285  0ED7                     l5020:	
  7286  0ED7  1FB8               	btfss	(___fttol@exp1),7
  7287  0ED8  2EDA               	goto	u4321
  7288  0ED9  2EDB               	goto	u4320
  7289  0EDA                     u4321:
  7290  0EDA  2F00               	goto	l5030
  7291  0EDB                     u4320:
  7292                           	line	57
  7293                           	
  7294  0EDB                     l5022:	
  7295  0EDB  0838               	movf	(___fttol@exp1),w
  7296  0EDC  3A80               	xorlw	80h
  7297  0EDD  3E8F               	addlw	-((-15)^80h)
  7298  0EDE  1803               	skipnc
  7299  0EDF  2EE1               	goto	u4331
  7300  0EE0  2EE2               	goto	u4330
  7301  0EE1                     u4331:
  7302  0EE1  2EED               	goto	l5028
  7303  0EE2                     u4330:
  7304                           	line	58
  7305                           	
  7306  0EE2                     l5024:	
  7307  0EE2  3000               	movlw	0
  7308  0EE3  00AE               	movwf	(?___fttol+3)
  7309  0EE4  3000               	movlw	0
  7310  0EE5  00AD               	movwf	(?___fttol+2)
  7311  0EE6  3000               	movlw	0
  7312  0EE7  00AC               	movwf	(?___fttol+1)
  7313  0EE8  3000               	movlw	0
  7314  0EE9  00AB               	movwf	(?___fttol)
  7315                           
  7316  0EEA  2F3D               	goto	l2050
  7317                           	
  7318  0EEB                     l5026:	
  7319  0EEB  2F3D               	goto	l2050
  7320                           	
  7321  0EEC                     l2052:	
  7322  0EEC  2EED               	goto	l5028
  7323                           	line	59
  7324                           	
  7325  0EED                     l2053:	
  7326                           	line	60
  7327                           	
  7328  0EED                     l5028:	
  7329  0EED  3001               	movlw	01h
  7330  0EEE                     u4345:
  7331  0EEE  1003               	clrc
  7332  0EEF  0CB7               	rrf	(___fttol@lval+3),f
  7333  0EF0  0CB6               	rrf	(___fttol@lval+2),f
  7334  0EF1  0CB5               	rrf	(___fttol@lval+1),f
  7335  0EF2  0CB4               	rrf	(___fttol@lval),f
  7336  0EF3  3EFF               	addlw	-1
  7337  0EF4  1D03               	skipz
  7338  0EF5  2EEE               	goto	u4345
  7339                           
  7340                           	line	61
  7341  0EF6  3001               	movlw	(01h)
  7342  0EF7  00AF               	movwf	(??___fttol+0)+0
  7343  0EF8  082F               	movf	(??___fttol+0)+0,w
  7344  0EF9  07B8               	addwf	(___fttol@exp1),f
  7345  0EFA  1D03               	btfss	status,2
  7346  0EFB  2EFD               	goto	u4351
  7347  0EFC  2EFE               	goto	u4350
  7348  0EFD                     u4351:
  7349  0EFD  2EED               	goto	l5028
  7350  0EFE                     u4350:
  7351  0EFE  2F24               	goto	l5040
  7352                           	
  7353  0EFF                     l2054:	
  7354                           	line	62
  7355  0EFF  2F24               	goto	l5040
  7356                           	
  7357  0F00                     l2051:	
  7358                           	line	63
  7359                           	
  7360  0F00                     l5030:	
  7361  0F00  3018               	movlw	(018h)
  7362  0F01  0238               	subwf	(___fttol@exp1),w
  7363  0F02  1C03               	skipc
  7364  0F03  2F05               	goto	u4361
  7365  0F04  2F06               	goto	u4360
  7366  0F05                     u4361:
  7367  0F05  2F1D               	goto	l5038
  7368  0F06                     u4360:
  7369                           	line	64
  7370                           	
  7371  0F06                     l5032:	
  7372  0F06  3000               	movlw	0
  7373  0F07  00AE               	movwf	(?___fttol+3)
  7374  0F08  3000               	movlw	0
  7375  0F09  00AD               	movwf	(?___fttol+2)
  7376  0F0A  3000               	movlw	0
  7377  0F0B  00AC               	movwf	(?___fttol+1)
  7378  0F0C  3000               	movlw	0
  7379  0F0D  00AB               	movwf	(?___fttol)
  7380                           
  7381  0F0E  2F3D               	goto	l2050
  7382                           	
  7383  0F0F                     l5034:	
  7384  0F0F  2F3D               	goto	l2050
  7385                           	
  7386  0F10                     l2056:	
  7387                           	line	65
  7388  0F10  2F1D               	goto	l5038
  7389                           	
  7390  0F11                     l2058:	
  7391                           	line	66
  7392                           	
  7393  0F11                     l5036:	
  7394  0F11  3001               	movlw	01h
  7395  0F12  00AF               	movwf	(??___fttol+0)+0
  7396  0F13                     u4375:
  7397  0F13  1003               	clrc
  7398  0F14  0DB4               	rlf	(___fttol@lval),f
  7399  0F15  0DB5               	rlf	(___fttol@lval+1),f
  7400  0F16  0DB6               	rlf	(___fttol@lval+2),f
  7401  0F17  0DB7               	rlf	(___fttol@lval+3),f
  7402  0F18  0BAF               	decfsz	(??___fttol+0)+0
  7403  0F19  2F13               	goto	u4375
  7404                           	line	67
  7405  0F1A  3001               	movlw	low(01h)
  7406  0F1B  02B8               	subwf	(___fttol@exp1),f
  7407  0F1C  2F1D               	goto	l5038
  7408                           	line	68
  7409                           	
  7410  0F1D                     l2057:	
  7411                           	line	65
  7412                           	
  7413  0F1D                     l5038:	
  7414  0F1D  08B8               	movf	(___fttol@exp1),f
  7415  0F1E  1D03               	skipz
  7416  0F1F  2F21               	goto	u4381
  7417  0F20  2F22               	goto	u4380
  7418  0F21                     u4381:
  7419  0F21  2F11               	goto	l5036
  7420  0F22                     u4380:
  7421  0F22  2F24               	goto	l5040
  7422                           	
  7423  0F23                     l2059:	
  7424  0F23  2F24               	goto	l5040
  7425                           	line	69
  7426                           	
  7427  0F24                     l2055:	
  7428                           	line	70
  7429                           	
  7430  0F24                     l5040:	
  7431  0F24  0833               	movf	(___fttol@sign1),w
  7432  0F25  1D03               	skipz
  7433  0F26  2F28               	goto	u4390
  7434  0F27  2F34               	goto	l5044
  7435  0F28                     u4390:
  7436                           	line	71
  7437                           	
  7438  0F28                     l5042:	
  7439  0F28  09B4               	comf	(___fttol@lval),f
  7440  0F29  09B5               	comf	(___fttol@lval+1),f
  7441  0F2A  09B6               	comf	(___fttol@lval+2),f
  7442  0F2B  09B7               	comf	(___fttol@lval+3),f
  7443  0F2C  0AB4               	incf	(___fttol@lval),f
  7444  0F2D  1903               	skipnz
  7445  0F2E  0AB5               	incf	(___fttol@lval+1),f
  7446  0F2F  1903               	skipnz
  7447  0F30  0AB6               	incf	(___fttol@lval+2),f
  7448  0F31  1903               	skipnz
  7449  0F32  0AB7               	incf	(___fttol@lval+3),f
  7450  0F33  2F34               	goto	l5044
  7451                           	
  7452  0F34                     l2060:	
  7453                           	line	72
  7454                           	
  7455  0F34                     l5044:	
  7456  0F34  0837               	movf	(___fttol@lval+3),w
  7457  0F35  00AE               	movwf	(?___fttol+3)
  7458  0F36  0836               	movf	(___fttol@lval+2),w
  7459  0F37  00AD               	movwf	(?___fttol+2)
  7460  0F38  0835               	movf	(___fttol@lval+1),w
  7461  0F39  00AC               	movwf	(?___fttol+1)
  7462  0F3A  0834               	movf	(___fttol@lval),w
  7463  0F3B  00AB               	movwf	(?___fttol)
  7464                           
  7465  0F3C  2F3D               	goto	l2050
  7466                           	
  7467  0F3D                     l5046:	
  7468                           	line	73
  7469                           	
  7470  0F3D                     l2050:	
  7471  0F3D  0008               	return
  7472                           	opt stack 0
  7473                           GLOBAL	__end_of___fttol
  7474  0F3E                     	__end_of___fttol:
  7475 ;; =============== function ___fttol ends ============
  7476                           
  7477                           	signat	___fttol,4220
  7478                           	global	___ftpack
  7479                           psect	text1009,local,class=CODE,delta=2
  7480                           global __ptext1009
  7481  0D02                     __ptext1009:
  7482                           
  7483 ;; *************** function ___ftpack *****************
  7484 ;; Defined at:
  7485 ;;		line 63 in file "C:\Program Files (x86)\HI-TECH Software\PICC\9.80\sources\float.c"
  7486 ;; Parameters:    Size  Location     Type
  7487 ;;  arg             3    0[BANK0 ] unsigned um
  7488 ;;  exp             1    3[BANK0 ] unsigned char 
  7489 ;;  sign            1    4[BANK0 ] unsigned char 
  7490 ;; Auto vars:     Size  Location     Type
  7491 ;;		None
  7492 ;; Return value:  Size  Location     Type
  7493 ;;                  3    0[BANK0 ] float 
  7494 ;; Registers used:
  7495 ;;		wreg, status,2, status,0
  7496 ;; Tracked objects:
  7497 ;;		On entry : 0/0
  7498 ;;		On exit  : 0/0
  7499 ;;		Unchanged: 0/0
  7500 ;; Data sizes:     COMMON   BANK0   BANK1   BANK3   BANK2
  7501 ;;      Params:         0       5       0       0       0
  7502 ;;      Locals:         0       0       0       0       0
  7503 ;;      Temps:          0       3       0       0       0
  7504 ;;      Totals:         0       8       0       0       0
  7505 ;;Total ram usage:        8 bytes
  7506 ;; Hardware stack levels used:    1
  7507 ;; Hardware stack levels required when called:    1
  7508 ;; This function calls:
  7509 ;;		Nothing
  7510 ;; This function is called by:
  7511 ;;		___ftadd
  7512 ;;		___ftdiv
  7513 ;;		___ftmul
  7514 ;;		___awtoft
  7515 ;;		___lbtoft
  7516 ;;		___abtoft
  7517 ;;		___lwtoft
  7518 ;;		___altoft
  7519 ;;		___lltoft
  7520 ;;		___attoft
  7521 ;;		___lttoft
  7522 ;; This function uses a non-reentrant model
  7523 ;;
  7524                           psect	text1009
  7525                           	file	"C:\Program Files (x86)\HI-TECH Software\PICC\9.80\sources\float.c"
  7526                           	line	63
  7527                           	global	__size_of___ftpack
  7528  007D                     	__size_of___ftpack	equ	__end_of___ftpack-___ftpack
  7529                           	
  7530  0D02                     ___ftpack:	
  7531                           	opt	stack 4
  7532                           ; Regs used in ___ftpack: [wreg+status,2+status,0]
  7533                           	line	64
  7534                           	
  7535  0D02                     l4968:	
  7536  0D02  1283               	bcf	status, 5	;RP0=0, select bank0
  7537  0D03  1303               	bcf	status, 6	;RP1=0, select bank0
  7538  0D04  0823               	movf	(___ftpack@exp),w
  7539  0D05  1D03               	skipz
  7540  0D06  2D08               	goto	u4190
  7541  0D07  2D10               	goto	l4972
  7542  0D08                     u4190:
  7543                           	
  7544  0D08                     l4970:	
  7545  0D08  0822               	movf	(___ftpack@arg+2),w
  7546  0D09  0421               	iorwf	(___ftpack@arg+1),w
  7547  0D0A  0420               	iorwf	(___ftpack@arg),w
  7548  0D0B  1D03               	skipz
  7549  0D0C  2D0E               	goto	u4201
  7550  0D0D  2D0F               	goto	u4200
  7551  0D0E                     u4201:
  7552  0D0E  2D26               	goto	l4978
  7553  0D0F                     u4200:
  7554  0D0F  2D10               	goto	l4972
  7555                           	
  7556  0D10                     l2274:	
  7557                           	line	65
  7558                           	
  7559  0D10                     l4972:	
  7560  0D10  3000               	movlw	0x0
  7561  0D11  00A0               	movwf	(?___ftpack)
  7562  0D12  3000               	movlw	0x0
  7563  0D13  00A1               	movwf	(?___ftpack+1)
  7564  0D14  3000               	movlw	0x0
  7565  0D15  00A2               	movwf	(?___ftpack+2)
  7566  0D16  2D7E               	goto	l2275
  7567                           	
  7568  0D17                     l4974:	
  7569  0D17  2D7E               	goto	l2275
  7570                           	
  7571  0D18                     l2272:	
  7572                           	line	66
  7573  0D18  2D26               	goto	l4978
  7574                           	
  7575  0D19                     l2277:	
  7576                           	line	67
  7577                           	
  7578  0D19                     l4976:	
  7579  0D19  3001               	movlw	(01h)
  7580  0D1A  00A5               	movwf	(??___ftpack+0)+0
  7581  0D1B  0825               	movf	(??___ftpack+0)+0,w
  7582  0D1C  07A3               	addwf	(___ftpack@exp),f
  7583                           	line	68
  7584  0D1D  3001               	movlw	01h
  7585  0D1E                     u4215:
  7586  0D1E  1003               	clrc
  7587  0D1F  0CA2               	rrf	(___ftpack@arg+2),f
  7588  0D20  0CA1               	rrf	(___ftpack@arg+1),f
  7589  0D21  0CA0               	rrf	(___ftpack@arg),f
  7590  0D22  3EFF               	addlw	-1
  7591  0D23  1D03               	skipz
  7592  0D24  2D1E               	goto	u4215
  7593                           
  7594  0D25  2D26               	goto	l4978
  7595                           	line	69
  7596                           	
  7597  0D26                     l2276:	
  7598                           	line	66
  7599                           	
  7600  0D26                     l4978:	
  7601  0D26  30FE               	movlw	low highword(0FE0000h)
  7602  0D27  0522               	andwf	(___ftpack@arg+2),w
  7603  0D28  1D03               	btfss	status,2
  7604  0D29  2D2B               	goto	u4221
  7605  0D2A  2D2C               	goto	u4220
  7606  0D2B                     u4221:
  7607  0D2B  2D19               	goto	l4976
  7608  0D2C                     u4220:
  7609  0D2C  2D44               	goto	l2279
  7610                           	
  7611  0D2D                     l2278:	
  7612                           	line	70
  7613  0D2D  2D44               	goto	l2279
  7614                           	
  7615  0D2E                     l2280:	
  7616                           	line	71
  7617                           	
  7618  0D2E                     l4980:	
  7619  0D2E  3001               	movlw	(01h)
  7620  0D2F  00A5               	movwf	(??___ftpack+0)+0
  7621  0D30  0825               	movf	(??___ftpack+0)+0,w
  7622  0D31  07A3               	addwf	(___ftpack@exp),f
  7623                           	line	72
  7624                           	
  7625  0D32                     l4982:	
  7626  0D32  3001               	movlw	01h
  7627  0D33  07A0               	addwf	(___ftpack@arg),f
  7628  0D34  3000               	movlw	0
  7629  0D35  1803               	skipnc
  7630  0D36  3001               movlw 1
  7631  0D37  07A1               	addwf	(___ftpack@arg+1),f
  7632  0D38  3000               	movlw	0
  7633  0D39  1803               	skipnc
  7634  0D3A  3001               movlw 1
  7635  0D3B  07A2               	addwf	(___ftpack@arg+2),f
  7636                           	line	73
  7637                           	
  7638  0D3C                     l4984:	
  7639  0D3C  3001               	movlw	01h
  7640  0D3D                     u4235:
  7641  0D3D  1003               	clrc
  7642  0D3E  0CA2               	rrf	(___ftpack@arg+2),f
  7643  0D3F  0CA1               	rrf	(___ftpack@arg+1),f
  7644  0D40  0CA0               	rrf	(___ftpack@arg),f
  7645  0D41  3EFF               	addlw	-1
  7646  0D42  1D03               	skipz
  7647  0D43  2D3D               	goto	u4235
  7648                           
  7649                           	line	74
  7650                           	
  7651  0D44                     l2279:	
  7652                           	line	70
  7653  0D44  30FF               	movlw	low highword(0FF0000h)
  7654  0D45  0522               	andwf	(___ftpack@arg+2),w
  7655  0D46  1D03               	btfss	status,2
  7656  0D47  2D49               	goto	u4241
  7657  0D48  2D4A               	goto	u4240
  7658  0D49                     u4241:
  7659  0D49  2D2E               	goto	l4980
  7660  0D4A                     u4240:
  7661  0D4A  2D57               	goto	l4988
  7662                           	
  7663  0D4B                     l2281:	
  7664                           	line	75
  7665  0D4B  2D57               	goto	l4988
  7666                           	
  7667  0D4C                     l2283:	
  7668                           	line	76
  7669                           	
  7670  0D4C                     l4986:	
  7671  0D4C  3001               	movlw	low(01h)
  7672  0D4D  02A3               	subwf	(___ftpack@exp),f
  7673                           	line	77
  7674  0D4E  3001               	movlw	01h
  7675  0D4F                     u4255:
  7676  0D4F  1003               	clrc
  7677  0D50  0DA0               	rlf	(___ftpack@arg),f
  7678  0D51  0DA1               	rlf	(___ftpack@arg+1),f
  7679  0D52  0DA2               	rlf	(___ftpack@arg+2),f
  7680  0D53  3EFF               	addlw	-1
  7681  0D54  1D03               	skipz
  7682  0D55  2D4F               	goto	u4255
  7683  0D56  2D57               	goto	l4988
  7684                           	line	78
  7685                           	
  7686  0D57                     l2282:	
  7687                           	line	75
  7688                           	
  7689  0D57                     l4988:	
  7690  0D57  1FA1               	btfss	(___ftpack@arg+1),(15)&7
  7691  0D58  2D5A               	goto	u4261
  7692  0D59  2D5B               	goto	u4260
  7693  0D5A                     u4261:
  7694  0D5A  2D4C               	goto	l4986
  7695  0D5B                     u4260:
  7696                           	
  7697  0D5B                     l2284:	
  7698                           	line	79
  7699  0D5B  1823               	btfsc	(___ftpack@exp),(0)&7
  7700  0D5C  2D5E               	goto	u4271
  7701  0D5D  2D5F               	goto	u4270
  7702  0D5E                     u4271:
  7703  0D5E  2D65               	goto	l2285
  7704  0D5F                     u4270:
  7705                           	line	80
  7706                           	
  7707  0D5F                     l4990:	
  7708  0D5F  30FF               	movlw	0FFh
  7709  0D60  05A0               	andwf	(___ftpack@arg),f
  7710  0D61  307F               	movlw	07Fh
  7711  0D62  05A1               	andwf	(___ftpack@arg+1),f
  7712  0D63  30FF               	movlw	0FFh
  7713  0D64  05A2               	andwf	(___ftpack@arg+2),f
  7714                           	
  7715  0D65                     l2285:	
  7716                           	line	81
  7717  0D65  1003               	clrc
  7718  0D66  0CA3               	rrf	(___ftpack@exp),f
  7719                           
  7720                           	line	82
  7721                           	
  7722  0D67                     l4992:	
  7723  0D67  0823               	movf	(___ftpack@exp),w
  7724  0D68  00A5               	movwf	((??___ftpack+0)+0)
  7725  0D69  01A6               	clrf	((??___ftpack+0)+0+1)
  7726  0D6A  01A7               	clrf	((??___ftpack+0)+0+2)
  7727  0D6B  3010               	movlw	010h
  7728  0D6C                     u4285:
  7729  0D6C  1003               	clrc
  7730  0D6D  0DA5               	rlf	(??___ftpack+0)+0,f
  7731  0D6E  0DA6               	rlf	(??___ftpack+0)+1,f
  7732  0D6F  0DA7               	rlf	(??___ftpack+0)+2,f
  7733  0D70                     u4280:
  7734  0D70  3EFF               	addlw	-1
  7735  0D71  1D03               	skipz
  7736  0D72  2D6C               	goto	u4285
  7737  0D73  0825               	movf	0+(??___ftpack+0)+0,w
  7738  0D74  04A0               	iorwf	(___ftpack@arg),f
  7739  0D75  0826               	movf	1+(??___ftpack+0)+0,w
  7740  0D76  04A1               	iorwf	(___ftpack@arg+1),f
  7741  0D77  0827               	movf	2+(??___ftpack+0)+0,w
  7742  0D78  04A2               	iorwf	(___ftpack@arg+2),f
  7743                           	line	83
  7744                           	
  7745  0D79                     l4994:	
  7746  0D79  0824               	movf	(___ftpack@sign),w
  7747  0D7A  1D03               	skipz
  7748  0D7B  2D7D               	goto	u4290
  7749  0D7C  2D7E               	goto	l2286
  7750  0D7D                     u4290:
  7751                           	line	84
  7752                           	
  7753  0D7D                     l4996:	
  7754  0D7D  17A2               	bsf	(___ftpack@arg)+(23/8),(23)&7
  7755                           	
  7756  0D7E                     l2286:	
  7757                           	line	85
  7758                           	line	86
  7759                           	
  7760  0D7E                     l2275:	
  7761  0D7E  0008               	return
  7762                           	opt stack 0
  7763                           GLOBAL	__end_of___ftpack
  7764  0D7F                     	__end_of___ftpack:
  7765 ;; =============== function ___ftpack ends ============
  7766                           
  7767                           	signat	___ftpack,12411
  7768                           	global	_isprint
  7769                           psect	text1010,local,class=CODE,delta=2
  7770                           global __ptext1010
  7771  0A1D                     __ptext1010:
  7772                           
  7773 ;; *************** function _isprint *****************
  7774 ;; Defined at:
  7775 ;;		line 13 in file "../../common/isprint.c"
  7776 ;; Parameters:    Size  Location     Type
  7777 ;;  c               1    wreg     unsigned char 
  7778 ;; Auto vars:     Size  Location     Type
  7779 ;;  c               1    1[BANK0 ] unsigned char 
  7780 ;; Return value:  Size  Location     Type
  7781 ;;		None               void
  7782 ;; Registers used:
  7783 ;;		wreg, status,2, status,0
  7784 ;; Tracked objects:
  7785 ;;		On entry : 0/0
  7786 ;;		On exit  : 0/0
  7787 ;;		Unchanged: 0/0
  7788 ;; Data sizes:     COMMON   BANK0   BANK1   BANK3   BANK2
  7789 ;;      Params:         0       0       0       0       0
  7790 ;;      Locals:         0       2       0       0       0
  7791 ;;      Temps:          0       0       0       0       0
  7792 ;;      Totals:         0       2       0       0       0
  7793 ;;Total ram usage:        2 bytes
  7794 ;; Hardware stack levels used:    1
  7795 ;; Hardware stack levels required when called:    1
  7796 ;; This function calls:
  7797 ;;		Nothing
  7798 ;; This function is called by:
  7799 ;;		_lcd_putc
  7800 ;; This function uses a non-reentrant model
  7801 ;;
  7802                           psect	text1010
  7803                           	file	"C:\Program Files (x86)\HI-TECH Software\PICC\9.80\sources\isprint.c"
  7804                           	line	13
  7805                           	global	__size_of_isprint
  7806  001B                     	__size_of_isprint	equ	__end_of_isprint-_isprint
  7807                           	
  7808  0A1D                     _isprint:	
  7809                           	opt	stack 4
  7810                           ; Regs used in _isprint: [wreg+status,2+status,0]
  7811                           ;isprint@c stored from wreg
  7812  0A1D  1283               	bcf	status, 5	;RP0=0, select bank0
  7813  0A1E  1303               	bcf	status, 6	;RP1=0, select bank0
  7814  0A1F  00A1               	movwf	(isprint@c)
  7815                           	line	14
  7816                           	
  7817  0A20                     l4956:	
  7818  0A20  1003               	clrc
  7819  0A21  3000               	movlw	0
  7820  0A22  1803               	btfsc	status,0
  7821  0A23  3001               	movlw	1
  7822  0A24  00A0               	movwf	(_isprint$1046)
  7823                           	
  7824  0A25                     l4958:	
  7825  0A25  307F               	movlw	(07Fh)
  7826  0A26  0221               	subwf	(isprint@c),w
  7827  0A27  1803               	skipnc
  7828  0A28  2A2A               	goto	u4171
  7829  0A29  2A2B               	goto	u4170
  7830  0A2A                     u4171:
  7831  0A2A  2A35               	goto	l4964
  7832  0A2B                     u4170:
  7833                           	
  7834  0A2B                     l4960:	
  7835  0A2B  3020               	movlw	(020h)
  7836  0A2C  0221               	subwf	(isprint@c),w
  7837  0A2D  1C03               	skipc
  7838  0A2E  2A30               	goto	u4181
  7839  0A2F  2A31               	goto	u4180
  7840  0A30                     u4181:
  7841  0A30  2A35               	goto	l4964
  7842  0A31                     u4180:
  7843                           	
  7844  0A31                     l4962:	
  7845  0A31  01A0               	clrf	(_isprint$1046)
  7846  0A32  1403               	bsf	status,0
  7847  0A33  0DA0               	rlf	(_isprint$1046),f
  7848  0A34  2A35               	goto	l4964
  7849                           	
  7850  0A35                     l1930:	
  7851                           	
  7852  0A35                     l4964:	
  7853  0A35  0C20               	rrf	(_isprint$1046),w
  7854                           	
  7855  0A36  2A37               	goto	l1931
  7856                           	
  7857  0A37                     l4966:	
  7858                           	line	15
  7859                           	
  7860  0A37                     l1931:	
  7861  0A37  0008               	return
  7862                           	opt stack 0
  7863                           GLOBAL	__end_of_isprint
  7864  0A38                     	__end_of_isprint:
  7865 ;; =============== function _isprint ends ============
  7866                           
  7867                           	signat	_isprint,4216
  7868                           	global	_i2c_dly
  7869                           psect	text1011,local,class=CODE,delta=2
  7870                           global __ptext1011
  7871  0003                     __ptext1011:
  7872                           
  7873 ;; *************** function _i2c_dly *****************
  7874 ;; Defined at:
  7875 ;;		line 104 in file "C:\Users\Administrator\Desktop\CODE1-ACE5\CODE1-FRAME WORK\CODE MPLAP\main.c"
  7876 ;; Parameters:    Size  Location     Type
  7877 ;;		None
  7878 ;; Auto vars:     Size  Location     Type
  7879 ;;		None
  7880 ;; Return value:  Size  Location     Type
  7881 ;;		None               void
  7882 ;; Registers used:
  7883 ;;		None
  7884 ;; Tracked objects:
  7885 ;;		On entry : 0/0
  7886 ;;		On exit  : 0/0
  7887 ;;		Unchanged: 0/0
  7888 ;; Data sizes:     COMMON   BANK0   BANK1   BANK3   BANK2
  7889 ;;      Params:         0       0       0       0       0
  7890 ;;      Locals:         0       0       0       0       0
  7891 ;;      Temps:          0       0       0       0       0
  7892 ;;      Totals:         0       0       0       0       0
  7893 ;;Total ram usage:        0 bytes
  7894 ;; Hardware stack levels used:    1
  7895 ;; Hardware stack levels required when called:    1
  7896 ;; This function calls:
  7897 ;;		Nothing
  7898 ;; This function is called by:
  7899 ;;		_I2C_start
  7900 ;;		_I2C_stop
  7901 ;;		_I2C_read
  7902 ;;		_I2C_write
  7903 ;; This function uses a non-reentrant model
  7904 ;;
  7905                           psect	text1011
  7906                           	file	"C:\Users\Administrator\Desktop\CODE1-ACE5\CODE1-FRAME WORK\CODE MPLAP\main.c"
  7907                           	line	104
  7908                           	global	__size_of_i2c_dly
  7909  0001                     	__size_of_i2c_dly	equ	__end_of_i2c_dly-_i2c_dly
  7910                           	
  7911  0003                     _i2c_dly:	
  7912                           	opt	stack 4
  7913                           ; Regs used in _i2c_dly: []
  7914                           	line	106
  7915                           	
  7916  0003                     l968:	
  7917  0003  0008               	return
  7918                           	opt stack 0
  7919                           GLOBAL	__end_of_i2c_dly
  7920  0004                     	__end_of_i2c_dly:
  7921 ;; =============== function _i2c_dly ends ============
  7922                           
  7923                           	signat	_i2c_dly,88
  7924                           	global	_uart_tx
  7925                           psect	text1012,local,class=CODE,delta=2
  7926                           global __ptext1012
  7927  09B9                     __ptext1012:
  7928                           
  7929 ;; *************** function _uart_tx *****************
  7930 ;; Defined at:
  7931 ;;		line 59 in file "C:\Users\Administrator\Desktop\CODE1-ACE5\CODE1-FRAME WORK\CODE MPLAP\main.c"
  7932 ;; Parameters:    Size  Location     Type
  7933 ;;  data            1    wreg     unsigned char 
  7934 ;; Auto vars:     Size  Location     Type
  7935 ;;  data            1    0[BANK0 ] unsigned char 
  7936 ;; Return value:  Size  Location     Type
  7937 ;;		None               void
  7938 ;; Registers used:
  7939 ;;		wreg
  7940 ;; Tracked objects:
  7941 ;;		On entry : 0/0
  7942 ;;		On exit  : 0/0
  7943 ;;		Unchanged: 0/0
  7944 ;; Data sizes:     COMMON   BANK0   BANK1   BANK3   BANK2
  7945 ;;      Params:         0       0       0       0       0
  7946 ;;      Locals:         0       1       0       0       0
  7947 ;;      Temps:          0       0       0       0       0
  7948 ;;      Totals:         0       1       0       0       0
  7949 ;;Total ram usage:        1 bytes
  7950 ;; Hardware stack levels used:    1
  7951 ;; Hardware stack levels required when called:    1
  7952 ;; This function calls:
  7953 ;;		Nothing
  7954 ;; This function is called by:
  7955 ;;		_send_lux
  7956 ;; This function uses a non-reentrant model
  7957 ;;
  7958                           psect	text1012
  7959                           	file	"C:\Users\Administrator\Desktop\CODE1-ACE5\CODE1-FRAME WORK\CODE MPLAP\main.c"
  7960                           	line	59
  7961                           	global	__size_of_uart_tx
  7962  000C                     	__size_of_uart_tx	equ	__end_of_uart_tx-_uart_tx
  7963                           	
  7964  09B9                     _uart_tx:	
  7965                           	opt	stack 5
  7966                           ; Regs used in _uart_tx: [wreg]
  7967                           ;uart_tx@data stored from wreg
  7968  09B9  1283               	bcf	status, 5	;RP0=0, select bank0
  7969  09BA  1303               	bcf	status, 6	;RP1=0, select bank0
  7970  09BB  00A0               	movwf	(uart_tx@data)
  7971                           	line	60
  7972                           	
  7973  09BC                     l4950:	
  7974                           ;main.c: 60: TXREG =data;
  7975  09BC  0820               	movf	(uart_tx@data),w
  7976  09BD  0099               	movwf	(25)	;volatile
  7977                           	line	61
  7978                           ;main.c: 61: while(TXIF==0);
  7979  09BE  29BF               	goto	l949
  7980                           	
  7981  09BF                     l950:	
  7982                           	
  7983  09BF                     l949:	
  7984  09BF  1E0C               	btfss	(100/8),(100)&7
  7985  09C0  29C2               	goto	u4161
  7986  09C1  29C3               	goto	u4160
  7987  09C2                     u4161:
  7988  09C2  29BF               	goto	l949
  7989  09C3                     u4160:
  7990  09C3  29C4               	goto	l952
  7991                           	
  7992  09C4                     l951:	
  7993                           	line	63
  7994                           	
  7995  09C4                     l952:	
  7996  09C4  0008               	return
  7997                           	opt stack 0
  7998                           GLOBAL	__end_of_uart_tx
  7999  09C5                     	__end_of_uart_tx:
  8000 ;; =============== function _uart_tx ends ============
  8001                           
  8002                           	signat	_uart_tx,4216
  8003                           	global	_uart_isr
  8004                           psect	text1013,local,class=CODE,delta=2
  8005                           global __ptext1013
  8006  0B6F                     __ptext1013:
  8007                           
  8008 ;; *************** function _uart_isr *****************
  8009 ;; Defined at:
  8010 ;;		line 65 in file "C:\Users\Administrator\Desktop\CODE1-ACE5\CODE1-FRAME WORK\CODE MPLAP\main.c"
  8011 ;; Parameters:    Size  Location     Type
  8012 ;;		None
  8013 ;; Auto vars:     Size  Location     Type
  8014 ;;		None
  8015 ;; Return value:  Size  Location     Type
  8016 ;;		None               void
  8017 ;; Registers used:
  8018 ;;		wreg, fsr0l, fsr0h, status,2, status,0
  8019 ;; Tracked objects:
  8020 ;;		On entry : 0/0
  8021 ;;		On exit  : 0/0
  8022 ;;		Unchanged: 0/0
  8023 ;; Data sizes:     COMMON   BANK0   BANK1   BANK3   BANK2
  8024 ;;      Params:         0       0       0       0       0
  8025 ;;      Locals:         0       0       0       0       0
  8026 ;;      Temps:          5       0       0       0       0
  8027 ;;      Totals:         5       0       0       0       0
  8028 ;;Total ram usage:        5 bytes
  8029 ;; Hardware stack levels used:    1
  8030 ;; This function calls:
  8031 ;;		Nothing
  8032 ;; This function is called by:
  8033 ;;		Interrupt level 1
  8034 ;; This function uses a non-reentrant model
  8035 ;;
  8036                           psect	text1013
  8037                           	file	"C:\Users\Administrator\Desktop\CODE1-ACE5\CODE1-FRAME WORK\CODE MPLAP\main.c"
  8038                           	line	65
  8039                           	global	__size_of_uart_isr
  8040  0052                     	__size_of_uart_isr	equ	__end_of_uart_isr-_uart_isr
  8041                           	
  8042  0B6F                     _uart_isr:	
  8043                           	opt	stack 2
  8044                           ; Regs used in _uart_isr: [wreg-fsr0h+status,2+status,0]
  8045                           psect	intentry,class=CODE,delta=2
  8046                           global __pintentry
  8047  0004                     __pintentry:
  8048                           global interrupt_function
  8049  0004                     interrupt_function:
  8050                           	global saved_w
  8051  007E                     	saved_w	set	btemp+0
  8052  0004  00FE               	movwf	saved_w
  8053  0005  0803               	movf	status,w
  8054  0006  00F1               	movwf	(??_uart_isr+1)
  8055  0007  0804               	movf	fsr0,w
  8056  0008  00F2               	movwf	(??_uart_isr+2)
  8057  0009  080A               	movf	pclath,w
  8058  000A  00F3               	movwf	(??_uart_isr+3)
  8059  000B  1283               	bcf	status, 5	;RP0=0, select bank0
  8060  000C  1303               	bcf	status, 6	;RP1=0, select bank0
  8061  000D  087F               	movf	btemp+1,w
  8062  000E  00F4               	movwf	(??_uart_isr+4)
  8063  000F  120A  158A  2B6F   	ljmp	_uart_isr
  8064                           psect	text1013
  8065                           	line	66
  8066                           	
  8067  0B6F                     i1l4112:	
  8068                           ;main.c: 66: if(RCIE && RCIF)
  8069  0B6F  1683               	bsf	status, 5	;RP0=1, select bank1
  8070  0B70  1303               	bcf	status, 6	;RP1=0, select bank1
  8071  0B71  1E8C               	btfss	(1125/8)^080h,(1125)&7
  8072  0B72  2B74               	goto	u269_21
  8073  0B73  2B75               	goto	u269_20
  8074  0B74                     u269_21:
  8075  0B74  2B94               	goto	i1l4124
  8076  0B75                     u269_20:
  8077                           	
  8078  0B75                     i1l4114:	
  8079  0B75  1283               	bcf	status, 5	;RP0=0, select bank0
  8080  0B76  1303               	bcf	status, 6	;RP1=0, select bank0
  8081  0B77  1E8C               	btfss	(101/8),(101)&7
  8082  0B78  2B7A               	goto	u270_21
  8083  0B79  2B7B               	goto	u270_20
  8084  0B7A                     u270_21:
  8085  0B7A  2B94               	goto	i1l4124
  8086  0B7B                     u270_20:
  8087                           	line	68
  8088                           	
  8089  0B7B                     i1l4116:	
  8090                           ;main.c: 67: {
  8091                           ;main.c: 68: check[save]=RCREG;
  8092  0B7B  081A               	movf	(26),w	;volatile
  8093  0B7C  00F0               	movwf	(??_uart_isr+0)+0
  8094  0B7D  0878               	movf	(_save),w
  8095  0B7E  3EA0               	addlw	_check&0ffh
  8096  0B7F  0084               	movwf	fsr0
  8097  0B80  0870               	movf	(??_uart_isr+0)+0,w
  8098  0B81  1383               	bcf	status, 7	;select IRP bank1
  8099  0B82  0080               	movwf	indf
  8100                           	line	69
  8101                           	
  8102  0B83                     i1l4118:	
  8103                           ;main.c: 69: save++;
  8104  0B83  3001               	movlw	(01h)
  8105  0B84  00F0               	movwf	(??_uart_isr+0)+0
  8106  0B85  0870               	movf	(??_uart_isr+0)+0,w
  8107  0B86  07F8               	addwf	(_save),f
  8108                           	line	70
  8109                           	
  8110  0B87                     i1l4120:	
  8111                           ;main.c: 70: if(save==7)
  8112  0B87  0878               	movf	(_save),w
  8113  0B88  3A07               	xorlw	07h
  8114  0B89  1D03               	skipz
  8115  0B8A  2B8C               	goto	u271_21
  8116  0B8B  2B8D               	goto	u271_20
  8117  0B8C                     u271_21:
  8118  0B8C  2B94               	goto	i1l4124
  8119  0B8D                     u271_20:
  8120                           	line	72
  8121                           	
  8122  0B8D                     i1l4122:	
  8123                           ;main.c: 71: {
  8124                           ;main.c: 72: save=0;
  8125  0B8D  1003               	clrc
  8126  0B8E  3000               	movlw	0
  8127  0B8F  1803               	btfsc	status,0
  8128  0B90  3001               	movlw	1
  8129  0B91  00F8               	movwf	(_save)
  8130  0B92  2B94               	goto	i1l4124
  8131                           	line	74
  8132                           	
  8133  0B93                     i1l956:	
  8134  0B93  2B94               	goto	i1l4124
  8135                           	line	75
  8136                           	
  8137  0B94                     i1l955:	
  8138                           	line	76
  8139                           	
  8140  0B94                     i1l4124:	
  8141                           ;main.c: 74: }
  8142                           ;main.c: 75: }
  8143                           ;main.c: 76: if(T0IF && T0IE)
  8144  0B94  1D0B               	btfss	(90/8),(90)&7
  8145  0B95  2B97               	goto	u272_21
  8146  0B96  2B98               	goto	u272_20
  8147  0B97                     u272_21:
  8148  0B97  2BB5               	goto	i1l959
  8149  0B98                     u272_20:
  8150                           	
  8151  0B98                     i1l4126:	
  8152  0B98  1E8B               	btfss	(93/8),(93)&7
  8153  0B99  2B9B               	goto	u273_21
  8154  0B9A  2B9C               	goto	u273_20
  8155  0B9B                     u273_21:
  8156  0B9B  2BB5               	goto	i1l959
  8157  0B9C                     u273_20:
  8158                           	line	78
  8159                           	
  8160  0B9C                     i1l4128:	
  8161                           ;main.c: 77: {
  8162                           ;main.c: 78: T0IF=0;
  8163  0B9C  110B               	bcf	(90/8),(90)&7
  8164                           	line	79
  8165                           	
  8166  0B9D                     i1l4130:	
  8167                           ;main.c: 79: TMR0=131;
  8168  0B9D  3083               	movlw	(083h)
  8169  0B9E  1283               	bcf	status, 5	;RP0=0, select bank0
  8170  0B9F  0081               	movwf	(1)	;volatile
  8171                           	line	80
  8172                           ;main.c: 80: k++;
  8173  0BA0  3001               	movlw	low(01h)
  8174  0BA1  1683               	bsf	status, 5	;RP0=1, select bank1
  8175  0BA2  1303               	bcf	status, 6	;RP1=0, select bank1
  8176  0BA3  07C5               	addwf	(_k)^080h,f
  8177  0BA4  1803               	skipnc
  8178  0BA5  0AC6               	incf	(_k+1)^080h,f
  8179  0BA6  3000               	movlw	high(01h)
  8180  0BA7  07C6               	addwf	(_k+1)^080h,f
  8181                           	line	81
  8182                           ;main.c: 81: if(k==250)
  8183  0BA8  30FA               	movlw	0FAh
  8184  0BA9  0645               	xorwf	(_k)^080h,w
  8185  0BAA  0446               	iorwf	(_k+1)^080h,w
  8186  0BAB  1D03               	skipz
  8187  0BAC  2BAE               	goto	u274_21
  8188  0BAD  2BAF               	goto	u274_20
  8189  0BAE                     u274_21:
  8190  0BAE  2BB5               	goto	i1l959
  8191  0BAF                     u274_20:
  8192                           	line	84
  8193                           	
  8194  0BAF                     i1l4132:	
  8195                           ;main.c: 82: {
  8196                           ;main.c: 84: k=0;
  8197  0BAF  3000               	movlw	low(0)
  8198  0BB0  00C5               	movwf	(_k)^080h
  8199  0BB1  3000               	movlw	high(0)
  8200  0BB2  00C6               	movwf	((_k)^080h)+1
  8201  0BB3  2BB5               	goto	i1l959
  8202                           	line	87
  8203                           	
  8204  0BB4                     i1l958:	
  8205  0BB4  2BB5               	goto	i1l959
  8206                           	line	89
  8207                           	
  8208  0BB5                     i1l957:	
  8209                           	line	90
  8210                           	
  8211  0BB5                     i1l959:	
  8212  0BB5  0874               	movf	(??_uart_isr+4),w
  8213  0BB6  1283               	bcf	status, 5	;RP0=0, select bank0
  8214  0BB7  00FF               	movwf	btemp+1
  8215  0BB8  0873               	movf	(??_uart_isr+3),w
  8216  0BB9  008A               	movwf	pclath
  8217  0BBA  0872               	movf	(??_uart_isr+2),w
  8218  0BBB  0084               	movwf	fsr0
  8219  0BBC  0871               	movf	(??_uart_isr+1),w
  8220  0BBD  0083               	movwf	status
  8221  0BBE  0EFE               	swapf	saved_w,f
  8222  0BBF  0E7E               	swapf	saved_w,w
  8223  0BC0  0009               	retfie
  8224                           	opt stack 0
  8225                           GLOBAL	__end_of_uart_isr
  8226  0BC1                     	__end_of_uart_isr:
  8227 ;; =============== function _uart_isr ends ============
  8228                           
  8229                           	signat	_uart_isr,88
  8230                           psect	text1014,local,class=CODE,delta=2
  8231                           global __ptext1014
  8232  0000                     __ptext1014:
  8233                           	global	btemp
  8234  007E                     	btemp set 07Eh
  8235                           
  8236                           	DABS	1,126,2	;btemp
  8237                           	global	wtemp0
  8238  007E                     	wtemp0 set btemp


HI-TECH Software PICC Macro Assembler V9.80 build 6738 
Symbol Table                                                                                   Fri Nov 24 19:44:49 2017

                    _c 00E5                      _k 00C5                      _m 00D5                      _n 00D7  
                    pc 0002           ___awdiv@sign 002D                     _kq 00C9                     fsr 0004  
   __size_of_I2C_start 0021           ___ftadd@exp1 004B           ___ftadd@exp2 004A     __size_of_I2C_write 0038  
        ?_lcd_put_byte 0020           ___ftadd@sign 0049                    l950 09BF                    l951 09C4  
                  l952 09C4                    l962 0A96                    l963 0A85                    l971 0A58  
                  l964 0AA5                    l980 07CA                    l949 09BF                    l965 0AA5  
                  l981 07D6                    l974 0A02                    l982 07EE                    l990 0B3F  
                  l983 07F1                    l991 0B47                    l968 0003                    l984 07FF  
                  l992 0B4A                    l977 07BD                    l993 0B5B                    l978 07E6  
                  l994 0B6E                    l979 07C0                    _GIE 005F                    l989 0B56  
                  _RD1 0041                    _RC3 003B                    _RD2 0042                    _RC4 003C  
                  _RD3 0043                    _RD4 0044                    _RD5 0045                    _RD6 0046  
                  _RD7 0047                    _PS0 0408                    _PR2 0092                    _PS1 0409  
                  _PS2 040A                    _PSA 040B                    _kd1 00B0                    _ki1 00B3  
                  _kp1 00B6                    _kq2 00CB                    _kp5 00C7                    _nt1 006B  
                  _nt2 006C                    _dvi 0065                    _err 00AD                    fsr0 0004  
                  indf 0000           ___awmod@sign 0026           ___ftdiv@cntr 0049           ___ftdiv@sign 004E  
                 l1000 09E9                   l1003 0E05                   l1011 04D8                   l1020 0E95  
                 l1006 01A0                   l1007 0263                   l2000 0302                   l1008 0263  
                 l2001 033A                   l1017 0E79                   l2010 034F                   l2002 033A  
                 l1018 0E94                   l2011 0364                   l2003 030A                   l1019 0E95  
                 l2012 0391                   l2005 0323                   l2006 0324                   l2030 070F  
                 l2103 09D1                   l2007 0332                   l2031 0755                   l2104 09D2  
                 l2008 0325                   l2032 0777                   l2040 0621                   l2009 0339  
                 l2033 0786                   l2041 0661                   l2050 0F3D                   l2042 0676  
                 l2051 0F00                   l2043 068D                   l2060 0F34                   l2052 0EEC  
                 l2028 06F6                   l2044 0692                   l2053 0EED                   l2029 07A2  
                 l2045 06A7                   l2054 0EFF                   l2150 0C75                   l2046 06BE  
                 l2038 0608                   l2055 0F24                   l2151 0C4F                   l2039 06DA  
                 l2056 0F10                   l2080 0C9B                   l2152 0C43                   l2057 0F1D  
                 l2049 0EB5                   l2081 0CA8                   l2153 0C54                   l2058 0F11  
                 l2090 0D01                   l2082 0CF0                   l2154 0C55                   l2059 0F23  
                 l2083 0CC2                   l2155 0C66                   l2084 0CB6                   l2156 0C74  
                 l2148 0C2F                   l2076 0AE8                   l2085 0CC7                   l2157 0C7F  
                 l2149 0C39                   l2077 0B03                   l2086 0CC8                   l2158 0C86  
                 l2087 0CE1                   l2280 0D2E                   l2272 0D18                   l2088 0CEF  
                 l2281 0D4B                   l2089 0CFA                   l2282 0D57                   l2274 0D10  
                 l5010 0EB5                   l2283 0D4C                   l2275 0D7E                   l2284 0D5B  
                 l2276 0D26                   l5020 0ED7                   l5012 0EC7                   l5004 0E98  
                 l5100 09C5                   l1900 0C10                   l2285 0D65                   l2277 0D19  
                 l1901 0BC5                   l2286 0D7E                   l2278 0D2D                   l5022 0EDB  
                 l5030 0F00                   l5014 0EC8                   l5006 0EAB                   l5102 09CE  
                 l5110 0C22                   l1910 0C01                   l1902 0BD0                   l2279 0D44  
                 l1911 0C0D                   l1903 0BCF                   l5032 0F06                   l5040 0F24  
                 l5024 0EE2                   l5016 0ECE                   l5008 0EB4                   l5104 09D1  
                 l5120 0C3F                   l5112 0C26                   l5200 0A40                   l1920 0AD3  
                 l1904 0BDB                   l1912 0C1A                   l1905 0C1A                   l1930 0A35  
                 l5042 0F28                   l5034 0F0F                   l5026 0EEB                   l5018 0ED5  
                 l5106 09D2                   l5130 0C5F                   l5122 0C43                   l5114 0C2F  
                 l5202 0A48                   l5210 09F2                   l1906 0BDC                   l1931 0A37  
                 l1915 0AB2                   l1907 0BE8                   l1923 0A70                   l5044 0F34  
                 l5036 0F11                   l5028 0EED                   l5140 0C7F                   l5132 0C66  
                 l5124 0C4A                   l5116 0C33                   l5108 0C1B                   l5204 0A50  
                 l5212 09FA                   l5220 07BC                   l5300 0FDE                   l1916 0AB7  
                 l1908 0C0E                   l1924 0A5D                   l1917 0AC8                   l1909 0C02  
                 l1925 0A7D                   l5046 0F3D                   l5038 0F1D                   l5070 0C9F  
                 l5062 0C87                   l5142 0C86                   l5134 0C6D                   l5126 0C4F  
                 l5118 0C39                   l5206 09EA                   l5230 07CF                   l5222 07BD  
                 l5214 07A6                   l5302 0FF4                   l5310 0B13                   l1918 0AC7  
                 l1870 0571                   l1926 0A7D                   l1919 0AD3                   l1871 057F  
                 l5080 0CC2                   l5072 0CA4                   l5064 0C8E                   l5128 0C55  
                 l5136 0C75                   l5208 09ED                   l5240 07EA                   l5232 07D5  
                 l5224 07C0                   l5216 07AB                   l5304 0FFC                   l5312 0B23  
                 l5320 0264                   l5400 0707                   l1880 05C9                   l1872 057E  
                 l1881 05C8                   l1873 058A                   l1865 054D                   l5090 0CE8  
                 l5082 0CC8                   l5074 0CB2                   l5066 0C92                   l5138 0C79  
                 l5250 07FF                   l5242 07F2                   l5234 07D9                   l5226 07C3  
                 l5218 07B5                   l5314 0B29                   l5306 0B04                   l5330 029A  
                 l5322 027E                   l5410 072C                   l5402 070E                   l1882 05D4  
                 l1874 0598                   l1866 054C                   l1883 05E1                   l1875 0597  
                 l1867 0558                   l5084 0CD9                   l5076 0CB6                   l5092 0CF0  
                 l5068 0C9B                   l5244 07F7                   l5236 07DF                   l5228 07CA  
                 l5260 0B52                   l5252 0B3A                   l5316 0B31                   l5308 0B0E  
                 l5340 02B4                   l5332 029B                   l5324 0282                   l5420 075D  
                 l5412 073E                   l5404 070F                   l5500 0D7F                   l1884 05E0  
                 l1876 05A3                   l1868 0566                   l1885 05EC                   l1877 05B0  
                 l1869 0565                   l5094 0CF4                   l5086 0CDF                   l5078 0CBD  
                 l5246 07FA                   l5238 07E6                   l5262 0B5F                   l5254 0B43  
                 l5270 0F41                   l5318 0B36                   l5350 02D3                   l5342 02B8  
                 l5334 029F                   l1990 02AF                   l5326 0288                   l5430 0786  
                 l5422 076B                   l5414 0742                   l5406 0715                   l5510 0DAC  
                 l5502 0D8B                   l1886 05EC                   l1878 05AF                   l1991 02B9  
                 l1879 05BB                   l5096 0CFA                   l5088 0CE1                   l5192 0A7E  
                 l5248 07FB                   l5264 0B64                   l5256 0B4B                   l5280 0F5D  
                 l1896 0F50                   l5272 0F4A                   l5352 02DD                   l5360 0303  
                 l5344 02BD                   l1992 02BE                   l5336 02A5                   l1984 029B  
                 l5328 0293                   l5432 07A2                   l5424 0775                   l5416 0749  
                 l5408 071A                   l5440 0608                   l5512 0DB1                   l5504 0D90  
                 l5520 0AB2                   l5600 0086                   l1897 0FFF                   l1889 0B36  
                 l1993 0303                   l5098 0D01                   l5194 0A85                   l5266 0B6A  
                 l5258 0B4F                   l5290 0FA7                   l5282 0F64                   l5274 0F4E  
                 l5370 0332                   l5362 030A                   l5354 02E3                   l1994 02D3  
                 l5346 02BF                   l5338 02B0                   l1986 0293                   l5426 0777  
                 l5418 0755                   l5450 064F                   l5442 0619                   l5434 05ED  
                 l5514 0DCB                   l5506 0D96                   l5522 0ABB                   l5530 04E7  
                 l5610 0167                   l5602 00B8                   l1987 03AD                   l5196 0A38  
                 l5268 0B6E                   l5292 0FAF                   l5284 0F72                   l5276 0F50  
                 l5380 0369                   l5372 033E                   l5364 0314                   l5356 02EE  
                 l1996 02EC                   l5348 02C5                   l1988 02B0                   l5428 077F  
                 l5460 0665                   l5452 0650                   l5444 0620                   l5436 0600  
                 l5508 0DA1                   l5524 0AC8                   l5516 0AA9                   l5540 054D  
                 l5532 04F0                   l5620 024D                   l5612 018B                   l5604 00D2  
                 l5700 0E84                   l1997 02ED                   l5198 0A3B                   l5294 0FB2  
                 l5286 0F82                   l5278 0F55                   l5390 03AD                   l5382 0379  
                 l5374 034F                   l5366 031A                   l1998 02FB                   l5358 02FB  
                 l5470 0692                   l5462 0676                   l5454 0656                   l5446 0621  
                 l5438 0607                   l5518 0AAD                   l5526 03AE                   l5550 058A  
                 l5542 0558                   l5534 04FC                   l5622 0255                   l5614 0191  
                 l5606 00FD                   l5702 0E89                   l5630 0E12                   l1999 02EE  
                 l5296 0FC0                   l5288 0F93                   l5384 037D                   l5376 0353  
                 l5368 0325                   l5392 06DB                   l5480 06BE                   l5472 0696  
                 l5464 067E                   l5456 065C                   l5448 064E                   l5560 05C9  
                 l5552 0598                   l5544 0566                   l5536 0513                   l5528 04D9  
                 l5616 019F                   l5608 0139                   l5704 0E8E                   l5640 0E22  
                 l5632 0E15                   l5624 0E06                   l5298 0FCE                   l5386 038D  
                 l5378 0364                   l5394 06EE                   l5482 06DA                   l5474 06A7  
                 l5466 0686                   l5458 0661                   l5490 0AE8                   l5562 05D4  
                 l5554 05A3                   l5546 0571                   l5538 051E                   l5570 0BD0  
                 l5618 01A0                   l5650 0E30                   l5642 0E2A                   l5634 0E19  
                 l5626 0E0A                   l5388 0391                   l5396 06F5                   l5476 06AF  
                 l5468 068D                   l5492 0B03                   l5484 0AD4                   l5564 05E1  
                 l5556 05B0                   l5548 057F                   l5580 0C0F                   l5572 0BDC  
                 l5660 0E3B                   l5652 0E33                   l5644 0E2B                   l5636 0E1B  
                 l5628 0E0F                   l4950 09BC                   l5398 06F6                   l5478 06B7  
                 l5486 0ADB                   l5494 09D3                   l5558 05BB                   l5574 0BE8  
                 l5582 0C10                   l5566 0BC4                   l5590 0A70                   l5670 0E56  
                 l5662 0E3F                   l5654 0E34                   l5646 0E2C                   l5638 0E1F  
                 l4960 0A2B                   l5488 0ADF                   l5496 09D8                   l5576 0BF4  
                 l5568 0BC5                   l5584 0A5C                   l5592 0021                   l5680 0E5D  
                 l5672 0E59                   l5664 0E42                   l5656 0E38                   l5648 0E2D  
                 _ADFM 04FF                   l4962 0A31                   l4970 0D08                   l5498 09DE  
                 l5578 0C02                   l5586 0A5D                   l5594 002C                   l5690 0E65  
                 l5682 0E60                   l5674 0E5A                   l5666 0E46                   l5658 0E3A  
                 l4964 0A35                   l4956 0A20                   l4980 0D2E                   l4972 0D10  
                 l5588 0A69                   l5596 0032                   l5692 0E69                   l5684 0E61  
                 l5676 0E5B                   l5668 0E53                   l4966 0A37                   l4958 0A25  
                 l4990 0D5F                   l4982 0D32                   l4974 0D17                   l5598 007B  
                 l5694 0E6A                   l5686 0E62                   l5678 0E5C                   l4992 0D67  
                 l4984 0D3C                   l4976 0D19                   l4968 0D02                   l5696 0E73  
                 l5688 0E64                   l4994 0D79                   l4986 0D4C                   l4978 0D26  
                 l5698 0E79                   l4996 0D7D                   l4988 0D57                   _ADON 00F8  
                 _CHS0 00FA                   _CHS1 00FB                   _CHS2 00FC                   _CHS3 00FD  
                 STR_1 001B                   _ANS2 0C42                   _T0IE 005D                   _T0IF 005A  
                 _T0CS 040D                   _T0SE 040C                   u4200 0D0F                   u5000 02BD  
                 u4201 0D0E                   u5001 02BC                   u5010 02D2                   u5011 02D1  
                 u4220 0D2C                   u4300 0EAB                   u5100 0322                   u4221 0D2B  
                 u4301 0EAA                   u5101 0321                   u4310 0EC0                   u5030 02E3  
                 u4215 0D1E                   u5031 02E2                   u4160 09C3                   u4240 0D4A  
                 u4320 0EDB                   u5120 0338                   u5040 02EB                   u5200 0737  
                 u4161 09C2                   u4241 0D49                   u4321 0EDA                   u5121 0337  
                 u5041 02EA                   u5025 02D4                   u4170 0A2B                   u4330 0EE2  
                 u4410 0C92                   u5130 033E                   u4171 0A2A                   u4235 0D3D  
                 u4331 0EE1                   u4315 0EBC                   u4411 0C91                   u5131 033D  
                 u5115 0326                   u4180 0A31                   u4260 0D5B                   u4500 0CF4  
                 u4420 0C9F                   u5140 0353                   u5060 0301                   u5220 076B  
                 u4181 0A30                   u4261 0D5A                   u4421 0C9E                   u5141 0352  
                 u5061 0300                   u5221 076A                   u5205 0733                   u5301 066E  
                 u4270 0D5F                   u4190 0D08                   u4350 0EFE                   u4430 0CB2  
                 u4510 09CE                   u5070 0309                   u5302 0675                   u4271 0D5E  
                 u4255 0D4F                   u4351 0EFD                   u4431 0CB1                   u4511 09CD  
                 u5151 0372                   u5071 0308                   u5055 02EF                   u5215 0756  
                 u4280 0D70                   u4360 0F06                   u4600 0C79                   u4520 0C26  
                 u5160 037D                   u5152 0379                   u5240 0785                   u4361 0F05  
                 u4345 0EEE                   u4521 0C25                   u5161 037C                   u5241 0784  
                 u5225 0767                   u4290 0D7D                   u4450 0CC6                   u4530 0C33  
                 u5090 031A                   u5170 06EE                   u5330 068C                   u5250 0600  
                 u5410 0AAD                   u4451 0CC5                   u4531 0C32                   u5091 0319  
                 u5235 0778                   u5171 06ED                   u5331 068B                   u5315 0677  
                 u5251 05FF                   _PEIE 005E                   u4380 0F22                   u4540 0C3F  
                 u4700 07D5                   u5180 0707                   u5340 0696                   u5260 0619  
                 u5420 0AD2                   u5500 0BDA                   u4285 0D6C                   u4381 0F21  
                 u4445 0CB7                   u4541 0C3E                   u4701 07D4                   u5085 030B  
                 u5181 0706                   u5341 0695                   u5325 067F                   u5261 0618  
                 u5405 0DB8                   u5421 0AD1                   u5501 0BD9                   u4390 0F28  
                 u4470 0CD9                   u4710 07E5                   u5190 0725                   u5270 0631  
                 u5430 0557                   u5510 0BF4                   u4375 0F13                   u4471 0CD8  
                 u4711 07E4                   u5351 069F                   u5431 0556                   u5511 0BF3  
                 u4560 0C53                   u4720 07EA                   u5352 06A6                   u5280 0643  
                 u5440 0570                   u5520 0C0C                   u4465 0CC9                   u4561 0C52  
                 u5441 056F                   u5521 0C0B                   u4490 0CEE                   u4570 0C5F  
                 u4730 0B43                   u4810 0F90                   u5290 0665                   u5450 0589  
                 u5530 0A7C                   u4491 0CED                   u4475 0CD5                   u4571 0C5E  
                 u4555 0C44                   u4731 0B42                   u4811 0F8C                   u5195 0721  
                 u5291 0664                   u5275 062D                   u5451 0588                   u5531 0A7B  
                 _RCIE 0465                   u4740 0B5B                   u4804 0F82                   u5380 06BD  
                 u5460 05A2                   u5540 019E                   _RCIF 0065                   u4485 0CE2  
                 u4741 0B5A                   u5381 06BC                   u5365 06A8                   u5285 063F  
                 u5461 05A1                   u5541 019D                   u4590 0C73                   u4670 0AA4  
                 u4910 0FEC                   u4830 0F9F                   u5390 0ADF                   u5470 05BA  
                 u5550 0262                   u4591 0C72                   u4575 0C5B                   u4671 0AA3  
                 u4911 0FE8                   u4831 0F9B                   u5375 06B0                   u5391 0ADE  
                 u5471 05B9                   u5607 0519                   u5551 0261                   u4680 07BB  
                 u4904 0FDE                   u4824 0F93                   u4760 0F4E                   u5480 05D3  
                 u5560 0E50                   u4585 0C67                   u4681 07BA                   u5481 05D2  
                 u5617 0530                   u5545 019A                   u5561 0E4C                   u4690 07C9  
                 u4850 0FBD                   u4770 0F6F                   u4930 0282                   u5490 05EB  
                 u4675 0AA0                   u4691 07C8                   u4755 0B6A                   u4851 0FB9  
                 u5707 0FA4                   u4771 0F6B                   u5491 05EA                   u5627 053B  
                 u5555 025E                   u4924 0FEF                   u4844 0FA2                   u4940 0288  
                 u5717 0FAC                   u4941 0287                   u5637 0546                   u4870 0FCB  
                 u4790 0F7F                   u4950 0292                   u5574 0E53                   u5727 0FF1  
                 u4871 0FC7                   u4791 0F7B                   u5647 0B10                   u4951 0291  
                 u4864 0FC0                   u4784 0F72                   u4960 029F                   u5737 0FF9  
                 u5657 0B18                   u4890 0FDB                   u4970 02A5                   u5747 0A89  
                 u4891 0FD7                   u5667 0B26                   u4971 02A4                   u5587 04EB  
                 u4884 0FCE                   u4980 02AF                   u5677 0B2E                   u4981 02AE  
                 u5597 0502                   u4990 02B8                   u5687 0F52                   u4991 02B7  
                 u5697 0F5A                   _TMR0 0001                   _TXIF 0064                   _SYNC 04C4  
                 _dvi1 0066                   _dvi2 00E6                   _fnt1 00C1                   _fnt2 00C3  
                 _chuc 0061                   _main 0E06           ___ftpack@arg 0020                   _kqkd 00CD  
                 _kqki 00CF                   _kqkp 00D1           ___ftpack@exp 0023                   _save 0078  
         lcd_busy@busy 0021                   _temp 00DF                   _tram 006D                   btemp 007E  
     __end_of_I2C_read 0800                   start 0012       __end_of_I2C_stop 0A03           ___ftmul@cntr 005A  
         ___ftmul@sign 005B        __end_of_i2c_dly 0004           ___fttol@exp1 0038           ___fttol@lval 0034  
       ??_lcd_put_byte 0021                  _ADCS0 00FE                  _ADCS1 00FF                  ?_main 0070  
      __end_of___awdiv 0D02        __end_of___ftadd 03AE                  _BRG16 0C3B        __end_of___awmod 0C87  
      __end_of___ftdiv 07A3        __end_of___ftneg 09D3                  _ANSEL 0188        __end_of___ftmul 06DB  
      ___awdiv@divisor 0027        __end_of___fttol 0F3E                  _T2CON 0012                  i1l955 0B94  
                i1l956 0B93                  i1l957 0BB5                  i1l958 0BB4                  i1l959 0BB5  
      ___awdiv@counter 002C                  _VCFG0 04FC                  _VCFG1 04FD                  _RCREG 001A  
                _RCSTA 0018                  _SPBRG 0099                  _PORTC 0007                  _TXREG 0019  
                _TXSTA 0098                  _check 00A0                  _chuc1 0062                  _chuc2 0063  
        ___awtoft@sign 003E                  _flux1 005C                  _flux2 00BF                  _nghin 0068  
                _tram1 006E          ___ftpack@sign 0024                  _value 00E1        __end_of_isprint 0A38  
       __pbitbssCOMMON 03C8                  pclath 000A        __end_of_uart_tx 09C5                  status 0003  
    __end_of_I2C_start 0A59                  wtemp0 007E      __end_of_I2C_write 0B6F           __end_of_main 0E98  
        lcd_gotoxy@col 0027          lcd_gotoxy@row 0025                 ??_main 00EA          ___fttol@sign1 0033  
     ___awdiv@dividend 0029       __end_of___awtoft 0B04       __end_of___ftpack 0D7F                 _ANSELH 0189  
               i1l4120 0B87                 i1l4112 0B6F                 i1l4130 0B9D                 i1l4122 0B8D  
               i1l4114 0B75                 i1l4132 0BAF                 i1l4116 0B7B                 i1l4124 0B94  
               i1l4126 0B98                 i1l4118 0B83                 i1l4128 0B9C                 u270_20 0B7B  
               u270_21 0B7A                 u271_20 0B8D                 u271_21 0B8C                 u272_20 0B98  
               u272_21 0B97                 u273_20 0B9C                 u273_21 0B9B                 u274_20 0BAF  
               u274_21 0BAE                 u269_20 0B75                 u269_21 0B74              I2C_read@d 0022  
            I2C_read@x 0023                 _SPBRGH 009A                 _TMR2ON 0092                 _TRISC1 0439  
               _TRISC2 043A                 _TRISD1 0441                 _TRISC3 043B                 _TRISD2 0442  
               _TRISC4 043C                 _TRISD3 0443                 _TRISD4 0444                 _TRISD5 0445  
               _TRISD6 0446                 _TRISD7 0447              ??_i2c_dly 0020       __end_of_delay_ms 0AA6  
        ??_BH1750_read 004F       __end_of_lcd_busy 0B37       __end_of_lcd_init 05ED       __end_of_lcd_putc 0C1B  
     __end_of_lcd_puts 0A7E                 _check1 0076              ??___awdiv 002B              ??___ftadd 0045  
            ??___awmod 0024              ??___ftdiv 0045              ??___ftneg 002B              ??___ftmul 0052  
            ??___fttol 002F                 _dosang 00AA                 _nghin1 0069                 _dvilux 0067  
     ___awdiv@quotient 002E        ___awmod@divisor 0020                 _value1 00BC                 _value2 005E  
               _value3 00E3        ___awmod@counter 0025                 _output 00DB                 clrloop 09B2  
        lcd_put_byte@b 0020  ___ftmul@f3_as_product 0057       __end_of_send_lux 04D9       __end_of_uart_isr 0BC1  
               saved_w 007E              ?_I2C_read 0070              ??_isprint 0020              ?_I2C_stop 0070  
            ??_uart_tx 0020   __end_of_lcd_put_byte 1000             ___ftadd@f1 003F             ___ftadd@f2 0042  
           ___ftdiv@f1 0042             ___ftdiv@f2 003F             ___ftdiv@f3 004A             ___ftneg@f1 0028  
           ___awtoft@c 0039             ___ftmul@f1 004C             ___ftmul@f2 004F             ___fttol@f1 002B  
       __pcstackCOMMON 0070    __end_of_BH1750_read 0E06             ??_I2C_read 0020             ??_I2C_stop 0020  
    lcd_gotoxy@address 0028             __pbssBANK0 005C             __pbssBANK1 00A0             __pmaintext 0E06  
        ?_BH1750_write 0023             __pintentry 0004                _CCP1CON 0017             __ptext1000 0B37  
           __ptext1001 07A3             __ptext1010 0A1D             __ptext1002 09EA             __ptext1011 0003  
           __ptext1003 0A38             __ptext1012 09B9             __ptext1004 0A7E             __ptext1013 0B6F  
           __ptext1005 0C1B             __ptext1014 0000             __ptext1006 09C5             __ptext1007 0C87  
           __ptext1008 0E98             __ptext1009 0D02              ?___awtoft 0039              ?___ftpack 0020  
            ?_delay_ms 0020             _lcd_gotoxy 0AA6              ?_lcd_busy 0070              ?_lcd_init 0070  
            ?_lcd_putc 0070              ?_lcd_puts 0070             I2C_write@b 03C8             I2C_write@d 0021  
           I2C_write@x 0022                _i2c_dly 0003     __size_of_xu_ly_lux 0243              ?_send_lux 0070  
            _I2C_start 0A38              _I2C_write 0B37            _BH1750_read 0D7F         ??_BH1750_write 0025  
            ?_uart_isr 0070                ___awdiv 0C87                ___ftadd 0264                ___awmod 0C1B  
              ___ftdiv 06DB                ___ftneg 09C5                ___ftmul 05ED                ___fttol 0E98  
              _biennt1 0075                _biennt2 0060             ??___awtoft 003C             ??___ftpack 0025  
              _chuclux 0064                _dosang1 0077                _nhietdo 00B9       ___awmod@dividend 0022  
              _isprint 0A1D             ??_delay_ms 0022                _pre_err 00DD                _uart_tx 09B9  
              _lux_set 00D3                _tramlux 006F  __size_of_lcd_put_byte 00C2             ??_lcd_busy 0020  
           ??_lcd_init 0025             ??_lcd_putc 0029             ??_lcd_puts 002B   end_of_initialization 0A19  
       lcd_put_byte@rs 0023             ??_send_lux 00E7             ?_I2C_start 0070             ?_I2C_write 0070  
           ??_uart_isr 0070          BH1750_read@hb 0052          BH1750_read@lb 0051           _lcd_put_byte 0F3E  
          uart_tx@data 0020      __end_of_xu_ly_lux 0264            ?_lcd_gotoxy 0025      __size_of_I2C_read 005D  
    __size_of_I2C_stop 0019            ___ftdiv@exp 004D            ___ftmul@exp 0056    start_initialization 0A03  
 __end_of_BH1750_write 09EA            ??_I2C_start 0020            ??_I2C_write 0020    __size_of_lcd_gotoxy 002E  
        _send_lux$1404 00E8      __size_of___awtoft 0030      __size_of___ftpack 007D            __pbssCOMMON 0075  
        __pcstackBANK0 0020          __pcstackBANK1 00E7      __size_of_delay_ms 0028      __size_of_lcd_busy 0033  
    __size_of_lcd_init 0114      __size_of_lcd_putc 005A      __size_of_lcd_puts 0025               ?_i2c_dly 0070  
         ?_BH1750_read 0070               ?___awdiv 0027      __size_of_send_lux 012B               ?___ftadd 003F  
             ?___awmod 0020               ?___ftdiv 003F              __ptext990 03AE              __ptext991 0AA6  
            __ptext992 0D7F              __ptext993 09D3              __ptext985 0000              __ptext994 0AD4  
            __ptext986 0021              __ptext995 05ED              __ptext987 0A59              __ptext996 06DB  
            __ptext988 0BC1              __ptext997 0264              __ptext989 04D9              __ptext998 0B04  
            __ptext999 0F3E               ?___ftneg 0028               ?___ftmul 004C               ?___fttol 002B  
    __size_of_uart_isr 0052              __pstrings 0015               _I2C_read 07A3               ?_isprint 0070  
             _I2C_stop 09EA               ?_uart_tx 0070      interrupt_function 0004              delay_ms@i 0023  
            delay_ms@x 0020            I2C_read@ack 0021            __stringbase 001A  __size_of_BH1750_write 0017  
            lcd_putc@c 002A              lcd_puts@s 002C           ??_lcd_gotoxy 0026              _xu_ly_lux 0021  
     lcd_put_byte@temp 0024           _isprint$1046 0020       __size_of_i2c_dly 0001           _BH1750_write 09D3  
   __end_of_lcd_gotoxy 0AD4       __size_of___awdiv 007B       __size_of___ftadd 014A       __size_of___awmod 006C  
       _xu_ly_lux$1403 00E8       __size_of___ftdiv 00C8       __size_of___ftneg 000E       __size_of___ftmul 00EE  
     __size_of___fttol 00A6               ___awtoft 0AD4               ___ftpack 0D02               _delay_ms 0A7E  
     __size_of_isprint 001B       __size_of_uart_tx 000C               _lcd_busy 0B04               _lcd_init 04D9  
           ?_xu_ly_lux 0070               _lcd_putc 0BC1               _lcd_puts 0A59          __size_of_main 0092  
             _nhietdo1 00D9               _nghinlux 006A               clear_ram 09B1               _send_lux 03AE  
             _uart_isr 0B6F   __size_of_BH1750_read 0087               intlevel1 0000               isprint@c 0021  
            stringcode 0015               stringdir 0015               stringtab 0015            ??_xu_ly_lux 00E7  
